ccopy_reg
_reconstructor
p1
(cpsychopy.data
ExperimentHandler
p2
c__builtin__
object
p3
NtRp4
(dp5
S'originPath'
p6
V/Users/Ian/Dropbox/Work/Studies/Learning via IAT CC/Measures/IAT/IAT picture categories.psyexp
p7
sS'dataFileName'
p8
V/Users/Ian/Dropbox/Work/Studies/Learning via IAT CC/Measures/IAT/data/2_IAT_2015_Nov_11_1625
p9
sS'runtimeInfo'
p10
NsS'name'
p11
S'IAT'
p12
sS'dataNames'
p13
(lp14
S'requiredResponse.keys'
p15
aS'requiredResponse.corr'
p16
aS'requiredResponse.rt'
p17
aS'feedbackResponse.keys'
p18
aS'feedbackResponse.corr'
p19
aS'feedbackResponse.rt'
p20
asS'autoLog'
p21
I01
sS'extraInfo'
p22
(dp23
Vparticipant
p24
V2
sVgender
p25
V
sVage
p26
V
sVblock order
p27
V1
sS'frameRate'
p28
cnumpy.core.multiarray
scalar
p29
(cnumpy
dtype
p30
(S'f8'
I0
I1
tRp31
(I3
S'<'
NNNI-1
I-1
I0
tbS'`A>"\x85\xdbM@'
tRp32
sS'expName'
p33
g12
sS'date'
p34
V2015_Nov_11_1625
p35
sVgroup
p36
V
ssS'loopsUnfinished'
p37
(lp38
g1
(cpsychopy.data
TrialHandler
p39
g3
NtRp40
(dp41
S'origin'
p42
V<PsychoPy2experiment version="1.82.01" encoding="utf-8">\u000a  <Settings>\u000a    <Param name="Show mouse" val="False" valType="bool" updates="None"/>\u000a    <Param name="Data filename" val="'data/%s_%s_%s' %(expInfo['participant'], expName, expInfo['date'])" valType="code" updates="None"/>\u000a    <Param name="Monitor" val="testMonitor" valType="str" updates="None"/>\u000a    <Param name="Enable Escape" val="True" valType="bool" updates="None"/>\u000a    <Param name="color" val="black" valType="str" updates="None"/>\u000a    <Param name="Window size (pixels)" val="[1366, 768]" valType="code" updates="None"/>\u000a    <Param name="Full-screen window" val="True" valType="bool" updates="None"/>\u000a    <Param name="colorSpace" val="rgb" valType="str" updates="None"/>\u000a    <Param name="Experiment info" val="{u'gender': u'', u'age': u'', u'participant': u'', u'block order': u'1', u'group': u''}" valType="code" updates="None"/>\u000a    <Param name="Save csv file" val="False" valType="bool" updates="None"/>\u000a    <Param name="Show info dlg" val="True" valType="bool" updates="None"/>\u000a    <Param name="Save wide csv file" val="True" valType="bool" updates="None"/>\u000a    <Param name="Save psydat file" val="True" valType="bool" updates="None"/>\u000a    <Param name="expName" val="IAT" valType="str" updates="None"/>\u000a    <Param name="logging level" val="error" valType="code" updates="None"/>\u000a    <Param name="blendMode" val="avg" valType="str" updates="None"/>\u000a    <Param name="Save excel file" val="False" valType="bool" updates="None"/>\u000a    <Param name="Units" val="use prefs" valType="str" updates="None"/>\u000a    <Param name="Save log file" val="False" valType="bool" updates="None"/>\u000a    <Param name="Screen" val="1" valType="num" updates="None"/>\u000a  </Settings>\u000a  <Routines>\u000a    <Routine name="trial">\u000a      <ImageComponent name="stimulusImage">\u000a        <Param name="opacity" val="1" valType="code" updates="constant"/>\u000a        <Param name="flipVert" val="False" valType="bool" updates="constant"/>\u000a        <Param name="colorSpace" val="rgb" valType="str" updates="constant"/>\u000a        <Param name="name" val="stimulusImage" valType="code" updates="None"/>\u000a        <Param name="color" val="$[1,1,1]" valType="str" updates="constant"/>\u000a        <Param name="stopVal" val="" valType="code" updates="constant"/>\u000a        <Param name="durationEstim" val="" valType="code" updates="None"/>\u000a        <Param name="mask" val="None" valType="str" updates="constant"/>\u000a        <Param name="pos" val="[0, 0]" valType="code" updates="constant"/>\u000a        <Param name="interpolate" val="linear" valType="str" updates="constant"/>\u000a        <Param name="startEstim" val="" valType="code" updates="None"/>\u000a        <Param name="units" val="from exp settings" valType="str" updates="None"/>\u000a        <Param name="texture resolution" val="128" valType="code" updates="constant"/>\u000a        <Param name="startType" val="time (s)" valType="str" updates="None"/>\u000a        <Param name="ori" val="0" valType="code" updates="constant"/>\u000a        <Param name="stopType" val="duration (s)" valType="str" updates="None"/>\u000a        <Param name="startVal" val="0.3" valType="code" updates="None"/>\u000a        <Param name="flipHoriz" val="False" valType="bool" updates="constant"/>\u000a        <Param name="image" val="$imageStimulus" valType="str" updates="set every repeat"/>\u000a        <Param name="size" val="[0.5, 0.5]" valType="code" updates="constant"/>\u000a      </ImageComponent>\u000a      <TextComponent name="stimulusBox">\u000a        <Param name="opacity" val="1" valType="code" updates="constant"/>\u000a        <Param name="colorSpace" val="rgb" valType="str" updates="constant"/>\u000a        <Param name="name" val="stimulusBox" valType="code" updates="None"/>\u000a        <Param name="color" val="$stimulusColour" valType="str" updates="set every repeat"/>\u000a        <Param name="wrapWidth" val="" valType="code" updates="constant"/>\u000a        <Param name="stopVal" val="" valType="code" updates="constant"/>\u000a        <Param name="durationEstim" val="" valType="code" updates="None"/>\u000a        <Param name="pos" val="[0, 0]" valType="code" updates="constant"/>\u000a        <Param name="flip" val="" valType="str" updates="constant"/>\u000a        <Param name="startEstim" val="" valType="code" updates="None"/>\u000a        <Param name="units" val="from exp settings" valType="str" updates="None"/>\u000a        <Param name="text" val="$stimulus" valType="str" updates="set every repeat"/>\u000a        <Param name="startType" val="time (s)" valType="str" updates="None"/>\u000a        <Param name="ori" val="0" valType="code" updates="constant"/>\u000a        <Param name="stopType" val="duration (s)" valType="str" updates="None"/>\u000a        <Param name="startVal" val="0.3" valType="code" updates="None"/>\u000a        <Param name="font" val="Arial" valType="str" updates="constant"/>\u000a        <Param name="letterHeight" val="0.1" valType="code" updates="constant"/>\u000a      </TextComponent>\u000a      <KeyboardComponent name="requiredResponse">\u000a        <Param name="correctAns" val="$requiredResponse" valType="str" updates="constant"/>\u000a        <Param name="storeCorrect" val="True" valType="bool" updates="constant"/>\u000a        <Param name="name" val="requiredResponse" valType="code" updates="None"/>\u000a        <Param name="stopVal" val="" valType="code" updates="constant"/>\u000a        <Param name="durationEstim" val="" valType="code" updates="None"/>\u000a        <Param name="forceEndRoutine" val="True" valType="bool" updates="constant"/>\u000a        <Param name="startEstim" val="" valType="code" updates="None"/>\u000a        <Param name="discard previous" val="True" valType="bool" updates="constant"/>\u000a        <Param name="startType" val="time (s)" valType="str" updates="None"/>\u000a        <Param name="allowedKeys" val="requiredAllowed" valType="code" updates="set every repeat"/>\u000a        <Param name="stopType" val="duration (s)" valType="str" updates="None"/>\u000a        <Param name="startVal" val="0.3" valType="code" updates="None"/>\u000a        <Param name="store" val="first key" valType="str" updates="constant"/>\u000a      </KeyboardComponent>\u000a      <KeyboardComponent name="feedbackResponse">\u000a        <Param name="correctAns" val="$feedbackResponse" valType="str" updates="constant"/>\u000a        <Param name="storeCorrect" val="True" valType="bool" updates="constant"/>\u000a        <Param name="name" val="feedbackResponse" valType="code" updates="None"/>\u000a        <Param name="stopVal" val="" valType="code" updates="constant"/>\u000a        <Param name="durationEstim" val="" valType="code" updates="None"/>\u000a        <Param name="forceEndRoutine" val="False" valType="bool" updates="constant"/>\u000a        <Param name="startEstim" val="" valType="code" updates="None"/>\u000a        <Param name="discard previous" val="True" valType="bool" updates="constant"/>\u000a        <Param name="startType" val="time (s)" valType="str" updates="None"/>\u000a        <Param name="allowedKeys" val="feedbackAllowed" valType="code" updates="set every repeat"/>\u000a        <Param name="stopType" val="duration (s)" valType="str" updates="None"/>\u000a        <Param name="startVal" val="0.3" valType="code" updates="None"/>\u000a        <Param name="store" val="first key" valType="str" updates="constant"/>\u000a      </KeyboardComponent>\u000a      <CodeComponent name="code">\u000a        <Param name="Begin Experiment" val="msg1=&quot;&quot;&#10;&#10;order = int(expInfo['block order'])&#10;&#10;if order == 1:&#10;    taskFile = &quot;blockOrderA.xlsx&quot;&#10;elif order == 2:&#10;    taskFile = &quot;blockOrderB.xlsx&quot;&#10;else:&#10;    print &quot;****UNRECOGNISED ORDER CODE - please use 1 or 2 only****&quot;" valType="extendedCode" updates="constant"/>\u000a        <Param name="name" val="code" valType="code" updates="None"/>\u000a        <Param name="Each Frame" val="if len(feedbackResponse.keys)&lt;1:&#10;    msg1=&quot;&quot;&#10;else:&#10;    msg1=&quot;X&quot;" valType="extendedCode" updates="constant"/>\u000a        <Param name="Begin Routine" val="" valType="extendedCode" updates="constant"/>\u000a        <Param name="End Routine" val="" valType="extendedCode" updates="constant"/>\u000a        <Param name="End Experiment" val="" valType="extendedCode" updates="constant"/>\u000a      </CodeComponent>\u000a      <TextComponent name="accuracyFeedback">\u000a        <Param name="opacity" val="1" valType="code" updates="constant"/>\u000a        <Param name="colorSpace" val="rgb" valType="str" updates="constant"/>\u000a        <Param name="name" val="accuracyFeedback" valType="code" updates="None"/>\u000a        <Param name="color" val="red" valType="str" updates="constant"/>\u000a        <Param name="wrapWidth" val="" valType="code" updates="constant"/>\u000a        <Param name="stopVal" val="" valType="code" updates="constant"/>\u000a        <Param name="durationEstim" val="" valType="code" updates="None"/>\u000a        <Param name="pos" val="[0, -.5]" valType="code" updates="constant"/>\u000a        <Param name="flip" val="" valType="str" updates="constant"/>\u000a        <Param name="startEstim" val="" valType="code" updates="None"/>\u000a        <Param name="units" val="from exp settings" valType="str" updates="None"/>\u000a        <Param name="text" val="$msg1" valType="str" updates="set every frame"/>\u000a        <Param name="startType" val="time (s)" valType="str" updates="None"/>\u000a        <Param name="ori" val="0" valType="code" updates="constant"/>\u000a        <Param name="stopType" val="duration (s)" valType="str" updates="None"/>\u000a        <Param name="startVal" val="0.3" valType="code" updates="None"/>\u000a        <Param name="font" val="Arial" valType="str" updates="constant"/>\u000a        <Param name="letterHeight" val="0.2" valType="code" updates="constant"/>\u000a      </TextComponent>\u000a      <TextComponent name="target1box">\u000a        <Param name="opacity" val="1" valType="code" updates="constant"/>\u000a        <Param name="colorSpace" val="rgb" valType="str" updates="constant"/>\u000a        <Param name="name" val="target1box" valType="code" updates="None"/>\u000a        <Param name="color" val="white" valType="str" updates="constant"/>\u000a        <Param name="wrapWidth" val="" valType="code" updates="constant"/>\u000a        <Param name="stopVal" val="" valType="code" updates="constant"/>\u000a        <Param name="durationEstim" val="" valType="code" updates="None"/>\u000a        <Param name="pos" val="[-.6, .85]" valType="code" updates="constant"/>\u000a        <Param name="flip" val="" valType="str" updates="constant"/>\u000a        <Param name="startEstim" val="" valType="code" updates="None"/>\u000a        <Param name="units" val="from exp settings" valType="str" updates="None"/>\u000a        <Param name="text" val="$target1" valType="str" updates="set every repeat"/>\u000a        <Param name="startType" val="time (s)" valType="str" updates="None"/>\u000a        <Param name="ori" val="0" valType="code" updates="constant"/>\u000a        <Param name="stopType" val="duration (s)" valType="str" updates="None"/>\u000a        <Param name="startVal" val="0.0" valType="code" updates="None"/>\u000a        <Param name="font" val="Arial" valType="str" updates="constant"/>\u000a        <Param name="letterHeight" val="0.1" valType="code" updates="constant"/>\u000a      </TextComponent>\u000a      <TextComponent name="attribute1box">\u000a        <Param name="opacity" val="1" valType="code" updates="constant"/>\u000a        <Param name="colorSpace" val="rgb" valType="str" updates="constant"/>\u000a        <Param name="name" val="attribute1box" valType="code" updates="None"/>\u000a        <Param name="color" val="$[-1, 1, -1]" valType="str" updates="set every repeat"/>\u000a        <Param name="wrapWidth" val="" valType="code" updates="constant"/>\u000a        <Param name="stopVal" val="" valType="code" updates="constant"/>\u000a        <Param name="durationEstim" val="" valType="code" updates="None"/>\u000a        <Param name="pos" val="[-.6, 0.55]" valType="code" updates="constant"/>\u000a        <Param name="flip" val="" valType="str" updates="constant"/>\u000a        <Param name="startEstim" val="" valType="code" updates="None"/>\u000a        <Param name="units" val="from exp settings" valType="str" updates="None"/>\u000a        <Param name="text" val="$attribute1&#10;" valType="str" updates="set every repeat"/>\u000a        <Param name="startType" val="time (s)" valType="str" updates="None"/>\u000a        <Param name="ori" val="0" valType="code" updates="constant"/>\u000a        <Param name="stopType" val="duration (s)" valType="str" updates="None"/>\u000a        <Param name="startVal" val="0.0" valType="code" updates="None"/>\u000a        <Param name="font" val="Arial" valType="str" updates="constant"/>\u000a        <Param name="letterHeight" val="0.1" valType="code" updates="constant"/>\u000a      </TextComponent>\u000a      <TextComponent name="target2box">\u000a        <Param name="opacity" val="1" valType="code" updates="constant"/>\u000a        <Param name="colorSpace" val="rgb" valType="str" updates="constant"/>\u000a        <Param name="name" val="target2box" valType="code" updates="None"/>\u000a        <Param name="color" val="white" valType="str" updates="constant"/>\u000a        <Param name="wrapWidth" val="" valType="code" updates="constant"/>\u000a        <Param name="stopVal" val="" valType="code" updates="constant"/>\u000a        <Param name="durationEstim" val="" valType="code" updates="None"/>\u000a        <Param name="pos" val="[0.6, 0.85]" valType="code" updates="constant"/>\u000a        <Param name="flip" val="" valType="str" updates="constant"/>\u000a        <Param name="startEstim" val="" valType="code" updates="None"/>\u000a        <Param name="units" val="from exp settings" valType="str" updates="None"/>\u000a        <Param name="text" val="$target2" valType="str" updates="set every repeat"/>\u000a        <Param name="startType" val="time (s)" valType="str" updates="None"/>\u000a        <Param name="ori" val="0" valType="code" updates="constant"/>\u000a        <Param name="stopType" val="duration (s)" valType="str" updates="None"/>\u000a        <Param name="startVal" val="0.0" valType="code" updates="None"/>\u000a        <Param name="font" val="Arial" valType="str" updates="constant"/>\u000a        <Param name="letterHeight" val="0.1" valType="code" updates="constant"/>\u000a      </TextComponent>\u000a      <TextComponent name="attribute2box">\u000a        <Param name="opacity" val="1" valType="code" updates="constant"/>\u000a        <Param name="colorSpace" val="rgb" valType="str" updates="constant"/>\u000a        <Param name="name" val="attribute2box" valType="code" updates="None"/>\u000a        <Param name="color" val="$[-1, 1, -1]" valType="str" updates="constant"/>\u000a        <Param name="wrapWidth" val="" valType="code" updates="constant"/>\u000a        <Param name="stopVal" val="" valType="code" updates="constant"/>\u000a        <Param name="durationEstim" val="" valType="code" updates="None"/>\u000a        <Param name="pos" val="[0.6, 0.55]" valType="code" updates="constant"/>\u000a        <Param name="flip" val="" valType="str" updates="constant"/>\u000a        <Param name="startEstim" val="" valType="code" updates="None"/>\u000a        <Param name="units" val="from exp settings" valType="str" updates="None"/>\u000a        <Param name="text" val="$attribute2" valType="str" updates="set every repeat"/>\u000a        <Param name="startType" val="time (s)" valType="str" updates="None"/>\u000a        <Param name="ori" val="0" valType="code" updates="constant"/>\u000a        <Param name="stopType" val="duration (s)" valType="str" updates="None"/>\u000a        <Param name="startVal" val="0.0" valType="code" updates="None"/>\u000a        <Param name="font" val="Arial" valType="str" updates="constant"/>\u000a        <Param name="letterHeight" val="0.1" valType="code" updates="constant"/>\u000a      </TextComponent>\u000a      <TextComponent name="orLeftBox">\u000a        <Param name="opacity" val="1" valType="code" updates="constant"/>\u000a        <Param name="colorSpace" val="rgb" valType="str" updates="constant"/>\u000a        <Param name="name" val="orLeftBox" valType="code" updates="None"/>\u000a        <Param name="color" val="white" valType="str" updates="constant"/>\u000a        <Param name="wrapWidth" val="" valType="code" updates="constant"/>\u000a        <Param name="stopVal" val="" valType="code" updates="constant"/>\u000a        <Param name="durationEstim" val="" valType="code" updates="None"/>\u000a        <Param name="pos" val="[-.6, .7]" valType="code" updates="constant"/>\u000a        <Param name="flip" val="" valType="str" updates="constant"/>\u000a        <Param name="startEstim" val="" valType="code" updates="None"/>\u000a        <Param name="units" val="from exp settings" valType="str" updates="None"/>\u000a        <Param name="text" val="$orStimulus" valType="str" updates="set every repeat"/>\u000a        <Param name="startType" val="time (s)" valType="str" updates="None"/>\u000a        <Param name="ori" val="0" valType="code" updates="constant"/>\u000a        <Param name="stopType" val="duration (s)" valType="str" updates="None"/>\u000a        <Param name="startVal" val="0.0" valType="code" updates="None"/>\u000a        <Param name="font" val="Arial" valType="str" updates="constant"/>\u000a        <Param name="letterHeight" val="0.1" valType="code" updates="constant"/>\u000a      </TextComponent>\u000a      <TextComponent name="orRightBox">\u000a        <Param name="opacity" val="1" valType="code" updates="constant"/>\u000a        <Param name="colorSpace" val="rgb" valType="str" updates="constant"/>\u000a        <Param name="name" val="orRightBox" valType="code" updates="None"/>\u000a        <Param name="color" val="white" valType="str" updates="constant"/>\u000a        <Param name="wrapWidth" val="" valType="code" updates="constant"/>\u000a        <Param name="stopVal" val="" valType="code" updates="constant"/>\u000a        <Param name="durationEstim" val="" valType="code" updates="None"/>\u000a        <Param name="pos" val="[.6, .7]" valType="code" updates="constant"/>\u000a        <Param name="flip" val="" valType="str" updates="constant"/>\u000a        <Param name="startEstim" val="" valType="code" updates="None"/>\u000a        <Param name="units" val="from exp settings" valType="str" updates="None"/>\u000a        <Param name="text" val="$orStimulus" valType="str" updates="set every repeat"/>\u000a        <Param name="startType" val="time (s)" valType="str" updates="None"/>\u000a        <Param name="ori" val="0" valType="code" updates="constant"/>\u000a        <Param name="stopType" val="duration (s)" valType="str" updates="None"/>\u000a        <Param name="startVal" val="0.0" valType="code" updates="None"/>\u000a        <Param name="font" val="Arial" valType="str" updates="constant"/>\u000a        <Param name="letterHeight" val="0.1" valType="code" updates="constant"/>\u000a      </TextComponent>\u000a    </Routine>\u000a    <Routine name="instructions">\u000a      <TextComponent name="instructionsBox">\u000a        <Param name="opacity" val="1" valType="code" updates="constant"/>\u000a        <Param name="colorSpace" val="rgb" valType="str" updates="constant"/>\u000a        <Param name="name" val="instructionsBox" valType="code" updates="None"/>\u000a        <Param name="color" val="white" valType="str" updates="constant"/>\u000a        <Param name="wrapWidth" val="" valType="code" updates="constant"/>\u000a        <Param name="stopVal" val="" valType="code" updates="constant"/>\u000a        <Param name="durationEstim" val="" valType="code" updates="None"/>\u000a        <Param name="pos" val="[0, -.15]" valType="code" updates="constant"/>\u000a        <Param name="flip" val="" valType="str" updates="constant"/>\u000a        <Param name="startEstim" val="" valType="code" updates="None"/>\u000a        <Param name="units" val="from exp settings" valType="str" updates="None"/>\u000a        <Param name="text" val="$instruction" valType="str" updates="set every repeat"/>\u000a        <Param name="startType" val="time (s)" valType="str" updates="None"/>\u000a        <Param name="ori" val="0" valType="code" updates="constant"/>\u000a        <Param name="stopType" val="duration (s)" valType="str" updates="None"/>\u000a        <Param name="startVal" val="0.3" valType="code" updates="None"/>\u000a        <Param name="font" val="Arial" valType="str" updates="constant"/>\u000a        <Param name="letterHeight" val="0.05" valType="code" updates="constant"/>\u000a      </TextComponent>\u000a      <KeyboardComponent name="responseContinue">\u000a        <Param name="correctAns" val="$requiredResponse" valType="str" updates="constant"/>\u000a        <Param name="storeCorrect" val="False" valType="bool" updates="constant"/>\u000a        <Param name="name" val="responseContinue" valType="code" updates="None"/>\u000a        <Param name="stopVal" val="" valType="code" updates="constant"/>\u000a        <Param name="durationEstim" val="" valType="code" updates="None"/>\u000a        <Param name="forceEndRoutine" val="True" valType="bool" updates="constant"/>\u000a        <Param name="startEstim" val="" valType="code" updates="None"/>\u000a        <Param name="discard previous" val="False" valType="bool" updates="constant"/>\u000a        <Param name="startType" val="time (s)" valType="str" updates="None"/>\u000a        <Param name="allowedKeys" val="'space'" valType="code" updates="constant"/>\u000a        <Param name="stopType" val="duration (s)" valType="str" updates="None"/>\u000a        <Param name="startVal" val="0.3" valType="code" updates="None"/>\u000a        <Param name="store" val="nothing" valType="str" updates="constant"/>\u000a      </KeyboardComponent>\u000a      <TextComponent name="target1box_inst">\u000a        <Param name="opacity" val="1" valType="code" updates="constant"/>\u000a        <Param name="colorSpace" val="rgb" valType="str" updates="constant"/>\u000a        <Param name="name" val="target1box_inst" valType="code" updates="None"/>\u000a        <Param name="color" val="white" valType="str" updates="constant"/>\u000a        <Param name="wrapWidth" val="" valType="code" updates="constant"/>\u000a        <Param name="stopVal" val="" valType="code" updates="constant"/>\u000a        <Param name="durationEstim" val="" valType="code" updates="None"/>\u000a        <Param name="pos" val="[-.6, .85]" valType="code" updates="constant"/>\u000a        <Param name="flip" val="" valType="str" updates="constant"/>\u000a        <Param name="startEstim" val="" valType="code" updates="None"/>\u000a        <Param name="units" val="from exp settings" valType="str" updates="None"/>\u000a        <Param name="text" val="$target1" valType="str" updates="set every repeat"/>\u000a        <Param name="startType" val="time (s)" valType="str" updates="None"/>\u000a        <Param name="ori" val="0" valType="code" updates="constant"/>\u000a        <Param name="stopType" val="duration (s)" valType="str" updates="None"/>\u000a        <Param name="startVal" val="0.0" valType="code" updates="None"/>\u000a        <Param name="font" val="Arial" valType="str" updates="constant"/>\u000a        <Param name="letterHeight" val="0.1" valType="code" updates="constant"/>\u000a      </TextComponent>\u000a      <TextComponent name="target2box_inst">\u000a        <Param name="opacity" val="1" valType="code" updates="constant"/>\u000a        <Param name="colorSpace" val="rgb" valType="str" updates="constant"/>\u000a        <Param name="name" val="target2box_inst" valType="code" updates="None"/>\u000a        <Param name="color" val="white" valType="str" updates="constant"/>\u000a        <Param name="wrapWidth" val="" valType="code" updates="constant"/>\u000a        <Param name="stopVal" val="" valType="code" updates="constant"/>\u000a        <Param name="durationEstim" val="" valType="code" updates="None"/>\u000a        <Param name="pos" val="[0.6, 0.85]" valType="code" updates="constant"/>\u000a        <Param name="flip" val="" valType="str" updates="constant"/>\u000a        <Param name="startEstim" val="" valType="code" updates="None"/>\u000a        <Param name="units" val="from exp settings" valType="str" updates="None"/>\u000a        <Param name="text" val="$target2" valType="str" updates="set every repeat"/>\u000a        <Param name="startType" val="time (s)" valType="str" updates="None"/>\u000a        <Param name="ori" val="0" valType="code" updates="constant"/>\u000a        <Param name="stopType" val="duration (s)" valType="str" updates="None"/>\u000a        <Param name="startVal" val="0.0" valType="code" updates="None"/>\u000a        <Param name="font" val="Arial" valType="str" updates="constant"/>\u000a        <Param name="letterHeight" val="0.1" valType="code" updates="constant"/>\u000a      </TextComponent>\u000a      <TextComponent name="attribute1box_inst">\u000a        <Param name="opacity" val="1" valType="code" updates="constant"/>\u000a        <Param name="colorSpace" val="rgb" valType="str" updates="constant"/>\u000a        <Param name="name" val="attribute1box_inst" valType="code" updates="None"/>\u000a        <Param name="color" val="$[-1, 1, -1]" valType="str" updates="constant"/>\u000a        <Param name="wrapWidth" val="" valType="code" updates="constant"/>\u000a        <Param name="stopVal" val="" valType="code" updates="constant"/>\u000a        <Param name="durationEstim" val="" valType="code" updates="None"/>\u000a        <Param name="pos" val="[-.6, 0.55]" valType="code" updates="constant"/>\u000a        <Param name="flip" val="" valType="str" updates="constant"/>\u000a        <Param name="startEstim" val="" valType="code" updates="None"/>\u000a        <Param name="units" val="from exp settings" valType="str" updates="None"/>\u000a        <Param name="text" val="$attribute1" valType="str" updates="set every repeat"/>\u000a        <Param name="startType" val="time (s)" valType="str" updates="None"/>\u000a        <Param name="ori" val="0" valType="code" updates="constant"/>\u000a        <Param name="stopType" val="duration (s)" valType="str" updates="None"/>\u000a        <Param name="startVal" val="0.0" valType="code" updates="None"/>\u000a        <Param name="font" val="Arial" valType="str" updates="constant"/>\u000a        <Param name="letterHeight" val="0.1" valType="code" updates="constant"/>\u000a      </TextComponent>\u000a      <TextComponent name="attribute2box_inst">\u000a        <Param name="opacity" val="1" valType="code" updates="constant"/>\u000a        <Param name="colorSpace" val="rgb" valType="str" updates="constant"/>\u000a        <Param name="name" val="attribute2box_inst" valType="code" updates="None"/>\u000a        <Param name="color" val="$[-1, 1, -1]" valType="str" updates="constant"/>\u000a        <Param name="wrapWidth" val="" valType="code" updates="constant"/>\u000a        <Param name="stopVal" val="" valType="code" updates="constant"/>\u000a        <Param name="durationEstim" val="" valType="code" updates="None"/>\u000a        <Param name="pos" val="[0.6, 0.55]" valType="code" updates="constant"/>\u000a        <Param name="flip" val="" valType="str" updates="constant"/>\u000a        <Param name="startEstim" val="" valType="code" updates="None"/>\u000a        <Param name="units" val="from exp settings" valType="str" updates="None"/>\u000a        <Param name="text" val="$attribute2" valType="str" updates="set every repeat"/>\u000a        <Param name="startType" val="time (s)" valType="str" updates="None"/>\u000a        <Param name="ori" val="0" valType="code" updates="constant"/>\u000a        <Param name="stopType" val="duration (s)" valType="str" updates="None"/>\u000a        <Param name="startVal" val="0.0" valType="code" updates="None"/>\u000a        <Param name="font" val="Arial" valType="str" updates="constant"/>\u000a        <Param name="letterHeight" val="0.1" valType="code" updates="constant"/>\u000a      </TextComponent>\u000a      <TextComponent name="orLeftBox_inst">\u000a        <Param name="opacity" val="1" valType="code" updates="constant"/>\u000a        <Param name="colorSpace" val="rgb" valType="str" updates="constant"/>\u000a        <Param name="name" val="orLeftBox_inst" valType="code" updates="None"/>\u000a        <Param name="color" val="white" valType="str" updates="constant"/>\u000a        <Param name="wrapWidth" val="" valType="code" updates="constant"/>\u000a        <Param name="stopVal" val="" valType="code" updates="constant"/>\u000a        <Param name="durationEstim" val="" valType="code" updates="None"/>\u000a        <Param name="pos" val="[-.6, .7]" valType="code" updates="constant"/>\u000a        <Param name="flip" val="" valType="str" updates="constant"/>\u000a        <Param name="startEstim" val="" valType="code" updates="None"/>\u000a        <Param name="units" val="from exp settings" valType="str" updates="None"/>\u000a        <Param name="text" val="$orStimulus" valType="str" updates="set every repeat"/>\u000a        <Param name="startType" val="time (s)" valType="str" updates="None"/>\u000a        <Param name="ori" val="0" valType="code" updates="constant"/>\u000a        <Param name="stopType" val="duration (s)" valType="str" updates="None"/>\u000a        <Param name="startVal" val="0.0" valType="code" updates="None"/>\u000a        <Param name="font" val="Arial" valType="str" updates="constant"/>\u000a        <Param name="letterHeight" val="0.1" valType="code" updates="constant"/>\u000a      </TextComponent>\u000a      <TextComponent name="orRightBox_inst">\u000a        <Param name="opacity" val="1" valType="code" updates="constant"/>\u000a        <Param name="colorSpace" val="rgb" valType="str" updates="constant"/>\u000a        <Param name="name" val="orRightBox_inst" valType="code" updates="None"/>\u000a        <Param name="color" val="white" valType="str" updates="constant"/>\u000a        <Param name="wrapWidth" val="" valType="code" updates="constant"/>\u000a        <Param name="stopVal" val="" valType="code" updates="constant"/>\u000a        <Param name="durationEstim" val="" valType="code" updates="None"/>\u000a        <Param name="pos" val="[.6, .7]" valType="code" updates="constant"/>\u000a        <Param name="flip" val="" valType="str" updates="constant"/>\u000a        <Param name="startEstim" val="" valType="code" updates="None"/>\u000a        <Param name="units" val="from exp settings" valType="str" updates="None"/>\u000a        <Param name="text" val="$orStimulus" valType="str" updates="set every repeat"/>\u000a        <Param name="startType" val="time (s)" valType="str" updates="None"/>\u000a        <Param name="ori" val="0" valType="code" updates="constant"/>\u000a        <Param name="stopType" val="duration (s)" valType="str" updates="None"/>\u000a        <Param name="startVal" val="0.0" valType="code" updates="None"/>\u000a        <Param name="font" val="Arial" valType="str" updates="constant"/>\u000a        <Param name="letterHeight" val="0.1" valType="code" updates="constant"/>\u000a      </TextComponent>\u000a    </Routine>\u000a  </Routines>\u000a  <Flow>\u000a    <LoopInitiator loopType="TrialHandler" name="blocks">\u000a      <Param name="conditionsFile" val="$taskFile" valType="str" updates="None"/>\u000a      <Param name="name" val="blocks" valType="code" updates="None"/>\u000a      <Param name="isTrials" val="False" valType="bool" updates="None"/>\u000a      <Param name="random seed" val="" valType="code" updates="None"/>\u000a      <Param name="loopType" val="sequential" valType="str" updates="None"/>\u000a      <Param name="nReps" val="1" valType="code" updates="None"/>\u000a      <Param name="endPoints" val="[0, 1]" valType="num" updates="None"/>\u000a      <Param name="conditions" val="None" valType="str" updates="None"/>\u000a      <Param name="Selected rows" val="" valType="str" updates="None"/>\u000a    </LoopInitiator>\u000a    <Routine name="instructions"/>\u000a    <LoopInitiator loopType="TrialHandler" name="trials">\u000a      <Param name="conditionsFile" val="$block" valType="str" updates="None"/>\u000a      <Param name="name" val="trials" valType="code" updates="None"/>\u000a      <Param name="isTrials" val="True" valType="bool" updates="None"/>\u000a      <Param name="random seed" val="" valType="code" updates="None"/>\u000a      <Param name="loopType" val="random" valType="str" updates="None"/>\u000a      <Param name="nReps" val="$nBlockRepeats" valType="code" updates="None"/>\u000a      <Param name="endPoints" val="[0, 1]" valType="num" updates="None"/>\u000a      <Param name="conditions" val="None" valType="str" updates="None"/>\u000a      <Param name="Selected rows" val="" valType="str" updates="None"/>\u000a    </LoopInitiator>\u000a    <Routine name="trial"/>\u000a    <LoopTerminator name="trials"/>\u000a    <LoopTerminator name="blocks"/>\u000a  </Flow>\u000a</PsychoPy2experiment>\u000a
p43
sS'thisTrial'
p44
g1
(cpsychopy.data
TrialType
p45
c__builtin__
dict
p46
(dp47
VorStimulus
p48
Vor
p49
sVinstruction
p50
VSee above, the four categories you saw separately now appear together. Remember, each item belongs to only one group.\u000a\u000aThe green and white labels and items may help to identify the appropriate category. Use the E and I keys to categorize items into four groups left and right, and correct errors by hitting the other key.\u000a\u000aPress E or I to continue.
p51
sVnBlockRepeats
p52
I1
sVattribute2
p53
VUnpleasant
p54
sVattribute1
p55
VPleasant
p56
sVtarget2
p57
VChinese characters
p58
sVblock
p59
VAblock3and4.xlsx
p60
sVtarget1
p61
VFlowers
p62
stRp63
sS'_exp'
p64
I206318320
sg11
S'blocks'
p65
sg6
g7
sS'thisRepN'
p66
I0
sg21
I01
sg22
g23
sS'data'
p67
g1
(cpsychopy.data
DataHandler
p68
g46
(dp69
S'ran'
p70
cnumpy.ma.core
_mareconstruct
p71
(cnumpy.ma.core
MaskedArray
p72
cnumpy
ndarray
p73
(I0
tp74
S'b'
tRp75
(I1
(I7
I1
tg30
(S'f4'
I0
I1
tRp76
(I3
S'<'
NNNI-1
I-1
I0
tbI00
S'\x00\x00\x80?\x00\x00\x80?\x00\x00\x80?\x00\x00\x00\x00\x00\x00\x00\x00\x00\x00\x00\x00\x00\x00\x00\x00'
S'\x00\x00\x00\x00\x00\x00\x00'
NtbsS'order'
p77
g71
(g72
g73
g74
S'b'
tRp78
(I1
(I7
I1
tg76
I00
S'\x00\x00\x00\x00\x00\x00\x80?\x00\x00\x00@\x00\x00\x00\x00\x00\x00\x00\x00\x00\x00\x00\x00\x00\x00\x00\x00'
S'\x00\x00\x00\x01\x01\x01\x01'
NtbstRp79
(dp80
S'isNumeric'
p81
(dp82
g70
I01
sg77
I01
ssS'trials'
p83
g40
sS'dataTypes'
p84
(lp85
g70
ag77
asS'dataShape'
p86
(lp87
I7
aI1
asbsS'method'
p88
S'sequential'
p89
sS'sequenceIndices'
p90
cnumpy.core.multiarray
_reconstruct
p91
(g73
(I0
tS'b'
tRp92
(I1
(I7
I1
tg30
(S'i4'
I0
I1
tRp93
(I3
S'<'
NNNI-1
I-1
I0
tbI00
S'\x00\x00\x00\x00\x01\x00\x00\x00\x02\x00\x00\x00\x03\x00\x00\x00\x04\x00\x00\x00\x05\x00\x00\x00\x06\x00\x00\x00'
tbsS'finished'
p94
I00
sS'nReps'
p95
I1
sS'nRemaining'
p96
I4
sS'trialList'
p97
(lp98
g1
(g45
g46
(dp99
g48
V 
sg50
VPut your middle or index fingers on the E and I keys of your keyboard. Words representing the categories at the top will appear one-by-one in the middle of the screen. When the item belongs to a category on the left, press the E key; when the item belongs to a category on the right, press the I key. Items belong to only one category. If you make an error, an X will appear - fix the error by hitting the other key.\u000a\u000aThis is a timed sorting task. GO AS FAST AS YOU CAN while making as few mistakes as possible. Going too slow or making too many errors will result in an uninterpretable score. This task will take about 5 minutes to complete.\u000a\u000aPress E or I to continue.
p100
sg52
I2
sg53
g54
sg55
g56
sg57
V 
sg59
VAblock1.xlsx
p101
sg61
V 
stRp102
ag1
(g45
g46
(dp103
g48
V 
sg50
VSee above, the categories have changed. The items for sorting have changed as well. The rules, however, are the same.\u000a\u000aWhen the item belongs to a category on the left, press the E key; when the item belongs to a category on the right, press the I key. Items belong to only one category. An X appears after an error - fix the error by hitting the other key. GO AS FAST AS YOU CAN.\u000a\u000aPress E or I to continue.
p104
sg52
I2
sg53
V 
sg55
V 
sg57
g58
sg59
VAblock2.xlsx
p105
sg61
g62
stRp106
ag63
ag1
(g45
g46
(dp107
g48
g49
sg50
VSort the same four categories again. Remember to go as fast as you can while making as few mistakes as possible.\u000a\u000aThe green and white labels and items may help to identify the appropriate category. Use the E and I keys to categorize items into the four groups left and right, and correct errors by hitting the other key.\u000a\u000aPress E or I to continue.
p108
sg52
I2
sg53
g54
sg55
g56
sg57
g58
sg59
g60
sg61
g62
stRp109
ag1
(g45
g46
(dp110
g48
V 
sg50
VNotice above, there are only two cateogries and they have switched positions. The concept that was previously on the left is now on the right, and the concept that was on the right is now on the left. Practice this new configuration.\u000a\u000aUse the E and I keys to catgorize items left and right, and correct errors by hitting the other key.\u000a\u000aPress E or I to continue.
p111
sg52
I4
sg53
V 
sg55
V 
sg57
g62
sg59
VAblock5.xlsx
p112
sg61
g58
stRp113
ag1
(g45
g46
(dp114
g48
g49
sg50
VSee above, the four categories now appear together in a new configuration. Remember, each item belongs to only one group.\u000a\u000aThe green and white labels and items may help to identify the appropriate category. Use the E and I keys to categorize items into the four groups left and right, and correct errors by hitting the other key.\u000a\u000aPress E or I to continue.
p115
sg52
I1
sg53
g54
sg55
g56
sg57
g62
sg59
VAblock6and7.xlsx
p116
sg61
g58
stRp117
ag1
(g45
g46
(dp118
g48
g49
sg50
g108
sg52
I2
sg53
g54
sg55
g56
sg57
g62
sg59
g116
sg61
g58
stRp119
asS'seed'
p120
NsS'thisIndex'
p121
g29
(g93
S'\x02\x00\x00\x00'
tRp122
sS'thisN'
p123
I2
sS'thisTrialN'
p124
I2
sS'nTotal'
p125
I7
sS'_warnUseOfNext'
p126
I01
sbag1
(g39
g3
NtRp127
(dp128
g42
V<PsychoPy2experiment version="1.82.01" encoding="utf-8">\u000a  <Settings>\u000a    <Param name="Show mouse" val="False" valType="bool" updates="None"/>\u000a    <Param name="Data filename" val="'data/%s_%s_%s' %(expInfo['participant'], expName, expInfo['date'])" valType="code" updates="None"/>\u000a    <Param name="Monitor" val="testMonitor" valType="str" updates="None"/>\u000a    <Param name="Enable Escape" val="True" valType="bool" updates="None"/>\u000a    <Param name="color" val="black" valType="str" updates="None"/>\u000a    <Param name="Window size (pixels)" val="[1366, 768]" valType="code" updates="None"/>\u000a    <Param name="Full-screen window" val="True" valType="bool" updates="None"/>\u000a    <Param name="colorSpace" val="rgb" valType="str" updates="None"/>\u000a    <Param name="Experiment info" val="{u'gender': u'', u'age': u'', u'participant': u'', u'block order': u'1', u'group': u''}" valType="code" updates="None"/>\u000a    <Param name="Save csv file" val="False" valType="bool" updates="None"/>\u000a    <Param name="Show info dlg" val="True" valType="bool" updates="None"/>\u000a    <Param name="Save wide csv file" val="True" valType="bool" updates="None"/>\u000a    <Param name="Save psydat file" val="True" valType="bool" updates="None"/>\u000a    <Param name="expName" val="IAT" valType="str" updates="None"/>\u000a    <Param name="logging level" val="error" valType="code" updates="None"/>\u000a    <Param name="blendMode" val="avg" valType="str" updates="None"/>\u000a    <Param name="Save excel file" val="False" valType="bool" updates="None"/>\u000a    <Param name="Units" val="use prefs" valType="str" updates="None"/>\u000a    <Param name="Save log file" val="False" valType="bool" updates="None"/>\u000a    <Param name="Screen" val="1" valType="num" updates="None"/>\u000a  </Settings>\u000a  <Routines>\u000a    <Routine name="trial">\u000a      <ImageComponent name="stimulusImage">\u000a        <Param name="opacity" val="1" valType="code" updates="constant"/>\u000a        <Param name="flipVert" val="False" valType="bool" updates="constant"/>\u000a        <Param name="colorSpace" val="rgb" valType="str" updates="constant"/>\u000a        <Param name="name" val="stimulusImage" valType="code" updates="None"/>\u000a        <Param name="color" val="$[1,1,1]" valType="str" updates="constant"/>\u000a        <Param name="stopVal" val="" valType="code" updates="constant"/>\u000a        <Param name="durationEstim" val="" valType="code" updates="None"/>\u000a        <Param name="mask" val="None" valType="str" updates="constant"/>\u000a        <Param name="pos" val="[0, 0]" valType="code" updates="constant"/>\u000a        <Param name="interpolate" val="linear" valType="str" updates="constant"/>\u000a        <Param name="startEstim" val="" valType="code" updates="None"/>\u000a        <Param name="units" val="from exp settings" valType="str" updates="None"/>\u000a        <Param name="texture resolution" val="128" valType="code" updates="constant"/>\u000a        <Param name="startType" val="time (s)" valType="str" updates="None"/>\u000a        <Param name="ori" val="0" valType="code" updates="constant"/>\u000a        <Param name="stopType" val="duration (s)" valType="str" updates="None"/>\u000a        <Param name="startVal" val="0.3" valType="code" updates="None"/>\u000a        <Param name="flipHoriz" val="False" valType="bool" updates="constant"/>\u000a        <Param name="image" val="$imageStimulus" valType="str" updates="set every repeat"/>\u000a        <Param name="size" val="[0.5, 0.5]" valType="code" updates="constant"/>\u000a      </ImageComponent>\u000a      <TextComponent name="stimulusBox">\u000a        <Param name="opacity" val="1" valType="code" updates="constant"/>\u000a        <Param name="colorSpace" val="rgb" valType="str" updates="constant"/>\u000a        <Param name="name" val="stimulusBox" valType="code" updates="None"/>\u000a        <Param name="color" val="$stimulusColour" valType="str" updates="set every repeat"/>\u000a        <Param name="wrapWidth" val="" valType="code" updates="constant"/>\u000a        <Param name="stopVal" val="" valType="code" updates="constant"/>\u000a        <Param name="durationEstim" val="" valType="code" updates="None"/>\u000a        <Param name="pos" val="[0, 0]" valType="code" updates="constant"/>\u000a        <Param name="flip" val="" valType="str" updates="constant"/>\u000a        <Param name="startEstim" val="" valType="code" updates="None"/>\u000a        <Param name="units" val="from exp settings" valType="str" updates="None"/>\u000a        <Param name="text" val="$stimulus" valType="str" updates="set every repeat"/>\u000a        <Param name="startType" val="time (s)" valType="str" updates="None"/>\u000a        <Param name="ori" val="0" valType="code" updates="constant"/>\u000a        <Param name="stopType" val="duration (s)" valType="str" updates="None"/>\u000a        <Param name="startVal" val="0.3" valType="code" updates="None"/>\u000a        <Param name="font" val="Arial" valType="str" updates="constant"/>\u000a        <Param name="letterHeight" val="0.1" valType="code" updates="constant"/>\u000a      </TextComponent>\u000a      <KeyboardComponent name="requiredResponse">\u000a        <Param name="correctAns" val="$requiredResponse" valType="str" updates="constant"/>\u000a        <Param name="storeCorrect" val="True" valType="bool" updates="constant"/>\u000a        <Param name="name" val="requiredResponse" valType="code" updates="None"/>\u000a        <Param name="stopVal" val="" valType="code" updates="constant"/>\u000a        <Param name="durationEstim" val="" valType="code" updates="None"/>\u000a        <Param name="forceEndRoutine" val="True" valType="bool" updates="constant"/>\u000a        <Param name="startEstim" val="" valType="code" updates="None"/>\u000a        <Param name="discard previous" val="True" valType="bool" updates="constant"/>\u000a        <Param name="startType" val="time (s)" valType="str" updates="None"/>\u000a        <Param name="allowedKeys" val="requiredAllowed" valType="code" updates="set every repeat"/>\u000a        <Param name="stopType" val="duration (s)" valType="str" updates="None"/>\u000a        <Param name="startVal" val="0.3" valType="code" updates="None"/>\u000a        <Param name="store" val="first key" valType="str" updates="constant"/>\u000a      </KeyboardComponent>\u000a      <KeyboardComponent name="feedbackResponse">\u000a        <Param name="correctAns" val="$feedbackResponse" valType="str" updates="constant"/>\u000a        <Param name="storeCorrect" val="True" valType="bool" updates="constant"/>\u000a        <Param name="name" val="feedbackResponse" valType="code" updates="None"/>\u000a        <Param name="stopVal" val="" valType="code" updates="constant"/>\u000a        <Param name="durationEstim" val="" valType="code" updates="None"/>\u000a        <Param name="forceEndRoutine" val="False" valType="bool" updates="constant"/>\u000a        <Param name="startEstim" val="" valType="code" updates="None"/>\u000a        <Param name="discard previous" val="True" valType="bool" updates="constant"/>\u000a        <Param name="startType" val="time (s)" valType="str" updates="None"/>\u000a        <Param name="allowedKeys" val="feedbackAllowed" valType="code" updates="set every repeat"/>\u000a        <Param name="stopType" val="duration (s)" valType="str" updates="None"/>\u000a        <Param name="startVal" val="0.3" valType="code" updates="None"/>\u000a        <Param name="store" val="first key" valType="str" updates="constant"/>\u000a      </KeyboardComponent>\u000a      <CodeComponent name="code">\u000a        <Param name="Begin Experiment" val="msg1=&quot;&quot;&#10;&#10;order = int(expInfo['block order'])&#10;&#10;if order == 1:&#10;    taskFile = &quot;blockOrderA.xlsx&quot;&#10;elif order == 2:&#10;    taskFile = &quot;blockOrderB.xlsx&quot;&#10;else:&#10;    print &quot;****UNRECOGNISED ORDER CODE - please use 1 or 2 only****&quot;" valType="extendedCode" updates="constant"/>\u000a        <Param name="name" val="code" valType="code" updates="None"/>\u000a        <Param name="Each Frame" val="if len(feedbackResponse.keys)&lt;1:&#10;    msg1=&quot;&quot;&#10;else:&#10;    msg1=&quot;X&quot;" valType="extendedCode" updates="constant"/>\u000a        <Param name="Begin Routine" val="" valType="extendedCode" updates="constant"/>\u000a        <Param name="End Routine" val="" valType="extendedCode" updates="constant"/>\u000a        <Param name="End Experiment" val="" valType="extendedCode" updates="constant"/>\u000a      </CodeComponent>\u000a      <TextComponent name="accuracyFeedback">\u000a        <Param name="opacity" val="1" valType="code" updates="constant"/>\u000a        <Param name="colorSpace" val="rgb" valType="str" updates="constant"/>\u000a        <Param name="name" val="accuracyFeedback" valType="code" updates="None"/>\u000a        <Param name="color" val="red" valType="str" updates="constant"/>\u000a        <Param name="wrapWidth" val="" valType="code" updates="constant"/>\u000a        <Param name="stopVal" val="" valType="code" updates="constant"/>\u000a        <Param name="durationEstim" val="" valType="code" updates="None"/>\u000a        <Param name="pos" val="[0, -.5]" valType="code" updates="constant"/>\u000a        <Param name="flip" val="" valType="str" updates="constant"/>\u000a        <Param name="startEstim" val="" valType="code" updates="None"/>\u000a        <Param name="units" val="from exp settings" valType="str" updates="None"/>\u000a        <Param name="text" val="$msg1" valType="str" updates="set every frame"/>\u000a        <Param name="startType" val="time (s)" valType="str" updates="None"/>\u000a        <Param name="ori" val="0" valType="code" updates="constant"/>\u000a        <Param name="stopType" val="duration (s)" valType="str" updates="None"/>\u000a        <Param name="startVal" val="0.3" valType="code" updates="None"/>\u000a        <Param name="font" val="Arial" valType="str" updates="constant"/>\u000a        <Param name="letterHeight" val="0.2" valType="code" updates="constant"/>\u000a      </TextComponent>\u000a      <TextComponent name="target1box">\u000a        <Param name="opacity" val="1" valType="code" updates="constant"/>\u000a        <Param name="colorSpace" val="rgb" valType="str" updates="constant"/>\u000a        <Param name="name" val="target1box" valType="code" updates="None"/>\u000a        <Param name="color" val="white" valType="str" updates="constant"/>\u000a        <Param name="wrapWidth" val="" valType="code" updates="constant"/>\u000a        <Param name="stopVal" val="" valType="code" updates="constant"/>\u000a        <Param name="durationEstim" val="" valType="code" updates="None"/>\u000a        <Param name="pos" val="[-.6, .85]" valType="code" updates="constant"/>\u000a        <Param name="flip" val="" valType="str" updates="constant"/>\u000a        <Param name="startEstim" val="" valType="code" updates="None"/>\u000a        <Param name="units" val="from exp settings" valType="str" updates="None"/>\u000a        <Param name="text" val="$target1" valType="str" updates="set every repeat"/>\u000a        <Param name="startType" val="time (s)" valType="str" updates="None"/>\u000a        <Param name="ori" val="0" valType="code" updates="constant"/>\u000a        <Param name="stopType" val="duration (s)" valType="str" updates="None"/>\u000a        <Param name="startVal" val="0.0" valType="code" updates="None"/>\u000a        <Param name="font" val="Arial" valType="str" updates="constant"/>\u000a        <Param name="letterHeight" val="0.1" valType="code" updates="constant"/>\u000a      </TextComponent>\u000a      <TextComponent name="attribute1box">\u000a        <Param name="opacity" val="1" valType="code" updates="constant"/>\u000a        <Param name="colorSpace" val="rgb" valType="str" updates="constant"/>\u000a        <Param name="name" val="attribute1box" valType="code" updates="None"/>\u000a        <Param name="color" val="$[-1, 1, -1]" valType="str" updates="set every repeat"/>\u000a        <Param name="wrapWidth" val="" valType="code" updates="constant"/>\u000a        <Param name="stopVal" val="" valType="code" updates="constant"/>\u000a        <Param name="durationEstim" val="" valType="code" updates="None"/>\u000a        <Param name="pos" val="[-.6, 0.55]" valType="code" updates="constant"/>\u000a        <Param name="flip" val="" valType="str" updates="constant"/>\u000a        <Param name="startEstim" val="" valType="code" updates="None"/>\u000a        <Param name="units" val="from exp settings" valType="str" updates="None"/>\u000a        <Param name="text" val="$attribute1&#10;" valType="str" updates="set every repeat"/>\u000a        <Param name="startType" val="time (s)" valType="str" updates="None"/>\u000a        <Param name="ori" val="0" valType="code" updates="constant"/>\u000a        <Param name="stopType" val="duration (s)" valType="str" updates="None"/>\u000a        <Param name="startVal" val="0.0" valType="code" updates="None"/>\u000a        <Param name="font" val="Arial" valType="str" updates="constant"/>\u000a        <Param name="letterHeight" val="0.1" valType="code" updates="constant"/>\u000a      </TextComponent>\u000a      <TextComponent name="target2box">\u000a        <Param name="opacity" val="1" valType="code" updates="constant"/>\u000a        <Param name="colorSpace" val="rgb" valType="str" updates="constant"/>\u000a        <Param name="name" val="target2box" valType="code" updates="None"/>\u000a        <Param name="color" val="white" valType="str" updates="constant"/>\u000a        <Param name="wrapWidth" val="" valType="code" updates="constant"/>\u000a        <Param name="stopVal" val="" valType="code" updates="constant"/>\u000a        <Param name="durationEstim" val="" valType="code" updates="None"/>\u000a        <Param name="pos" val="[0.6, 0.85]" valType="code" updates="constant"/>\u000a        <Param name="flip" val="" valType="str" updates="constant"/>\u000a        <Param name="startEstim" val="" valType="code" updates="None"/>\u000a        <Param name="units" val="from exp settings" valType="str" updates="None"/>\u000a        <Param name="text" val="$target2" valType="str" updates="set every repeat"/>\u000a        <Param name="startType" val="time (s)" valType="str" updates="None"/>\u000a        <Param name="ori" val="0" valType="code" updates="constant"/>\u000a        <Param name="stopType" val="duration (s)" valType="str" updates="None"/>\u000a        <Param name="startVal" val="0.0" valType="code" updates="None"/>\u000a        <Param name="font" val="Arial" valType="str" updates="constant"/>\u000a        <Param name="letterHeight" val="0.1" valType="code" updates="constant"/>\u000a      </TextComponent>\u000a      <TextComponent name="attribute2box">\u000a        <Param name="opacity" val="1" valType="code" updates="constant"/>\u000a        <Param name="colorSpace" val="rgb" valType="str" updates="constant"/>\u000a        <Param name="name" val="attribute2box" valType="code" updates="None"/>\u000a        <Param name="color" val="$[-1, 1, -1]" valType="str" updates="constant"/>\u000a        <Param name="wrapWidth" val="" valType="code" updates="constant"/>\u000a        <Param name="stopVal" val="" valType="code" updates="constant"/>\u000a        <Param name="durationEstim" val="" valType="code" updates="None"/>\u000a        <Param name="pos" val="[0.6, 0.55]" valType="code" updates="constant"/>\u000a        <Param name="flip" val="" valType="str" updates="constant"/>\u000a        <Param name="startEstim" val="" valType="code" updates="None"/>\u000a        <Param name="units" val="from exp settings" valType="str" updates="None"/>\u000a        <Param name="text" val="$attribute2" valType="str" updates="set every repeat"/>\u000a        <Param name="startType" val="time (s)" valType="str" updates="None"/>\u000a        <Param name="ori" val="0" valType="code" updates="constant"/>\u000a        <Param name="stopType" val="duration (s)" valType="str" updates="None"/>\u000a        <Param name="startVal" val="0.0" valType="code" updates="None"/>\u000a        <Param name="font" val="Arial" valType="str" updates="constant"/>\u000a        <Param name="letterHeight" val="0.1" valType="code" updates="constant"/>\u000a      </TextComponent>\u000a      <TextComponent name="orLeftBox">\u000a        <Param name="opacity" val="1" valType="code" updates="constant"/>\u000a        <Param name="colorSpace" val="rgb" valType="str" updates="constant"/>\u000a        <Param name="name" val="orLeftBox" valType="code" updates="None"/>\u000a        <Param name="color" val="white" valType="str" updates="constant"/>\u000a        <Param name="wrapWidth" val="" valType="code" updates="constant"/>\u000a        <Param name="stopVal" val="" valType="code" updates="constant"/>\u000a        <Param name="durationEstim" val="" valType="code" updates="None"/>\u000a        <Param name="pos" val="[-.6, .7]" valType="code" updates="constant"/>\u000a        <Param name="flip" val="" valType="str" updates="constant"/>\u000a        <Param name="startEstim" val="" valType="code" updates="None"/>\u000a        <Param name="units" val="from exp settings" valType="str" updates="None"/>\u000a        <Param name="text" val="$orStimulus" valType="str" updates="set every repeat"/>\u000a        <Param name="startType" val="time (s)" valType="str" updates="None"/>\u000a        <Param name="ori" val="0" valType="code" updates="constant"/>\u000a        <Param name="stopType" val="duration (s)" valType="str" updates="None"/>\u000a        <Param name="startVal" val="0.0" valType="code" updates="None"/>\u000a        <Param name="font" val="Arial" valType="str" updates="constant"/>\u000a        <Param name="letterHeight" val="0.1" valType="code" updates="constant"/>\u000a      </TextComponent>\u000a      <TextComponent name="orRightBox">\u000a        <Param name="opacity" val="1" valType="code" updates="constant"/>\u000a        <Param name="colorSpace" val="rgb" valType="str" updates="constant"/>\u000a        <Param name="name" val="orRightBox" valType="code" updates="None"/>\u000a        <Param name="color" val="white" valType="str" updates="constant"/>\u000a        <Param name="wrapWidth" val="" valType="code" updates="constant"/>\u000a        <Param name="stopVal" val="" valType="code" updates="constant"/>\u000a        <Param name="durationEstim" val="" valType="code" updates="None"/>\u000a        <Param name="pos" val="[.6, .7]" valType="code" updates="constant"/>\u000a        <Param name="flip" val="" valType="str" updates="constant"/>\u000a        <Param name="startEstim" val="" valType="code" updates="None"/>\u000a        <Param name="units" val="from exp settings" valType="str" updates="None"/>\u000a        <Param name="text" val="$orStimulus" valType="str" updates="set every repeat"/>\u000a        <Param name="startType" val="time (s)" valType="str" updates="None"/>\u000a        <Param name="ori" val="0" valType="code" updates="constant"/>\u000a        <Param name="stopType" val="duration (s)" valType="str" updates="None"/>\u000a        <Param name="startVal" val="0.0" valType="code" updates="None"/>\u000a        <Param name="font" val="Arial" valType="str" updates="constant"/>\u000a        <Param name="letterHeight" val="0.1" valType="code" updates="constant"/>\u000a      </TextComponent>\u000a    </Routine>\u000a    <Routine name="instructions">\u000a      <TextComponent name="instructionsBox">\u000a        <Param name="opacity" val="1" valType="code" updates="constant"/>\u000a        <Param name="colorSpace" val="rgb" valType="str" updates="constant"/>\u000a        <Param name="name" val="instructionsBox" valType="code" updates="None"/>\u000a        <Param name="color" val="white" valType="str" updates="constant"/>\u000a        <Param name="wrapWidth" val="" valType="code" updates="constant"/>\u000a        <Param name="stopVal" val="" valType="code" updates="constant"/>\u000a        <Param name="durationEstim" val="" valType="code" updates="None"/>\u000a        <Param name="pos" val="[0, -.15]" valType="code" updates="constant"/>\u000a        <Param name="flip" val="" valType="str" updates="constant"/>\u000a        <Param name="startEstim" val="" valType="code" updates="None"/>\u000a        <Param name="units" val="from exp settings" valType="str" updates="None"/>\u000a        <Param name="text" val="$instruction" valType="str" updates="set every repeat"/>\u000a        <Param name="startType" val="time (s)" valType="str" updates="None"/>\u000a        <Param name="ori" val="0" valType="code" updates="constant"/>\u000a        <Param name="stopType" val="duration (s)" valType="str" updates="None"/>\u000a        <Param name="startVal" val="0.3" valType="code" updates="None"/>\u000a        <Param name="font" val="Arial" valType="str" updates="constant"/>\u000a        <Param name="letterHeight" val="0.05" valType="code" updates="constant"/>\u000a      </TextComponent>\u000a      <KeyboardComponent name="responseContinue">\u000a        <Param name="correctAns" val="$requiredResponse" valType="str" updates="constant"/>\u000a        <Param name="storeCorrect" val="False" valType="bool" updates="constant"/>\u000a        <Param name="name" val="responseContinue" valType="code" updates="None"/>\u000a        <Param name="stopVal" val="" valType="code" updates="constant"/>\u000a        <Param name="durationEstim" val="" valType="code" updates="None"/>\u000a        <Param name="forceEndRoutine" val="True" valType="bool" updates="constant"/>\u000a        <Param name="startEstim" val="" valType="code" updates="None"/>\u000a        <Param name="discard previous" val="False" valType="bool" updates="constant"/>\u000a        <Param name="startType" val="time (s)" valType="str" updates="None"/>\u000a        <Param name="allowedKeys" val="'space'" valType="code" updates="constant"/>\u000a        <Param name="stopType" val="duration (s)" valType="str" updates="None"/>\u000a        <Param name="startVal" val="0.3" valType="code" updates="None"/>\u000a        <Param name="store" val="nothing" valType="str" updates="constant"/>\u000a      </KeyboardComponent>\u000a      <TextComponent name="target1box_inst">\u000a        <Param name="opacity" val="1" valType="code" updates="constant"/>\u000a        <Param name="colorSpace" val="rgb" valType="str" updates="constant"/>\u000a        <Param name="name" val="target1box_inst" valType="code" updates="None"/>\u000a        <Param name="color" val="white" valType="str" updates="constant"/>\u000a        <Param name="wrapWidth" val="" valType="code" updates="constant"/>\u000a        <Param name="stopVal" val="" valType="code" updates="constant"/>\u000a        <Param name="durationEstim" val="" valType="code" updates="None"/>\u000a        <Param name="pos" val="[-.6, .85]" valType="code" updates="constant"/>\u000a        <Param name="flip" val="" valType="str" updates="constant"/>\u000a        <Param name="startEstim" val="" valType="code" updates="None"/>\u000a        <Param name="units" val="from exp settings" valType="str" updates="None"/>\u000a        <Param name="text" val="$target1" valType="str" updates="set every repeat"/>\u000a        <Param name="startType" val="time (s)" valType="str" updates="None"/>\u000a        <Param name="ori" val="0" valType="code" updates="constant"/>\u000a        <Param name="stopType" val="duration (s)" valType="str" updates="None"/>\u000a        <Param name="startVal" val="0.0" valType="code" updates="None"/>\u000a        <Param name="font" val="Arial" valType="str" updates="constant"/>\u000a        <Param name="letterHeight" val="0.1" valType="code" updates="constant"/>\u000a      </TextComponent>\u000a      <TextComponent name="target2box_inst">\u000a        <Param name="opacity" val="1" valType="code" updates="constant"/>\u000a        <Param name="colorSpace" val="rgb" valType="str" updates="constant"/>\u000a        <Param name="name" val="target2box_inst" valType="code" updates="None"/>\u000a        <Param name="color" val="white" valType="str" updates="constant"/>\u000a        <Param name="wrapWidth" val="" valType="code" updates="constant"/>\u000a        <Param name="stopVal" val="" valType="code" updates="constant"/>\u000a        <Param name="durationEstim" val="" valType="code" updates="None"/>\u000a        <Param name="pos" val="[0.6, 0.85]" valType="code" updates="constant"/>\u000a        <Param name="flip" val="" valType="str" updates="constant"/>\u000a        <Param name="startEstim" val="" valType="code" updates="None"/>\u000a        <Param name="units" val="from exp settings" valType="str" updates="None"/>\u000a        <Param name="text" val="$target2" valType="str" updates="set every repeat"/>\u000a        <Param name="startType" val="time (s)" valType="str" updates="None"/>\u000a        <Param name="ori" val="0" valType="code" updates="constant"/>\u000a        <Param name="stopType" val="duration (s)" valType="str" updates="None"/>\u000a        <Param name="startVal" val="0.0" valType="code" updates="None"/>\u000a        <Param name="font" val="Arial" valType="str" updates="constant"/>\u000a        <Param name="letterHeight" val="0.1" valType="code" updates="constant"/>\u000a      </TextComponent>\u000a      <TextComponent name="attribute1box_inst">\u000a        <Param name="opacity" val="1" valType="code" updates="constant"/>\u000a        <Param name="colorSpace" val="rgb" valType="str" updates="constant"/>\u000a        <Param name="name" val="attribute1box_inst" valType="code" updates="None"/>\u000a        <Param name="color" val="$[-1, 1, -1]" valType="str" updates="constant"/>\u000a        <Param name="wrapWidth" val="" valType="code" updates="constant"/>\u000a        <Param name="stopVal" val="" valType="code" updates="constant"/>\u000a        <Param name="durationEstim" val="" valType="code" updates="None"/>\u000a        <Param name="pos" val="[-.6, 0.55]" valType="code" updates="constant"/>\u000a        <Param name="flip" val="" valType="str" updates="constant"/>\u000a        <Param name="startEstim" val="" valType="code" updates="None"/>\u000a        <Param name="units" val="from exp settings" valType="str" updates="None"/>\u000a        <Param name="text" val="$attribute1" valType="str" updates="set every repeat"/>\u000a        <Param name="startType" val="time (s)" valType="str" updates="None"/>\u000a        <Param name="ori" val="0" valType="code" updates="constant"/>\u000a        <Param name="stopType" val="duration (s)" valType="str" updates="None"/>\u000a        <Param name="startVal" val="0.0" valType="code" updates="None"/>\u000a        <Param name="font" val="Arial" valType="str" updates="constant"/>\u000a        <Param name="letterHeight" val="0.1" valType="code" updates="constant"/>\u000a      </TextComponent>\u000a      <TextComponent name="attribute2box_inst">\u000a        <Param name="opacity" val="1" valType="code" updates="constant"/>\u000a        <Param name="colorSpace" val="rgb" valType="str" updates="constant"/>\u000a        <Param name="name" val="attribute2box_inst" valType="code" updates="None"/>\u000a        <Param name="color" val="$[-1, 1, -1]" valType="str" updates="constant"/>\u000a        <Param name="wrapWidth" val="" valType="code" updates="constant"/>\u000a        <Param name="stopVal" val="" valType="code" updates="constant"/>\u000a        <Param name="durationEstim" val="" valType="code" updates="None"/>\u000a        <Param name="pos" val="[0.6, 0.55]" valType="code" updates="constant"/>\u000a        <Param name="flip" val="" valType="str" updates="constant"/>\u000a        <Param name="startEstim" val="" valType="code" updates="None"/>\u000a        <Param name="units" val="from exp settings" valType="str" updates="None"/>\u000a        <Param name="text" val="$attribute2" valType="str" updates="set every repeat"/>\u000a        <Param name="startType" val="time (s)" valType="str" updates="None"/>\u000a        <Param name="ori" val="0" valType="code" updates="constant"/>\u000a        <Param name="stopType" val="duration (s)" valType="str" updates="None"/>\u000a        <Param name="startVal" val="0.0" valType="code" updates="None"/>\u000a        <Param name="font" val="Arial" valType="str" updates="constant"/>\u000a        <Param name="letterHeight" val="0.1" valType="code" updates="constant"/>\u000a      </TextComponent>\u000a      <TextComponent name="orLeftBox_inst">\u000a        <Param name="opacity" val="1" valType="code" updates="constant"/>\u000a        <Param name="colorSpace" val="rgb" valType="str" updates="constant"/>\u000a        <Param name="name" val="orLeftBox_inst" valType="code" updates="None"/>\u000a        <Param name="color" val="white" valType="str" updates="constant"/>\u000a        <Param name="wrapWidth" val="" valType="code" updates="constant"/>\u000a        <Param name="stopVal" val="" valType="code" updates="constant"/>\u000a        <Param name="durationEstim" val="" valType="code" updates="None"/>\u000a        <Param name="pos" val="[-.6, .7]" valType="code" updates="constant"/>\u000a        <Param name="flip" val="" valType="str" updates="constant"/>\u000a        <Param name="startEstim" val="" valType="code" updates="None"/>\u000a        <Param name="units" val="from exp settings" valType="str" updates="None"/>\u000a        <Param name="text" val="$orStimulus" valType="str" updates="set every repeat"/>\u000a        <Param name="startType" val="time (s)" valType="str" updates="None"/>\u000a        <Param name="ori" val="0" valType="code" updates="constant"/>\u000a        <Param name="stopType" val="duration (s)" valType="str" updates="None"/>\u000a        <Param name="startVal" val="0.0" valType="code" updates="None"/>\u000a        <Param name="font" val="Arial" valType="str" updates="constant"/>\u000a        <Param name="letterHeight" val="0.1" valType="code" updates="constant"/>\u000a      </TextComponent>\u000a      <TextComponent name="orRightBox_inst">\u000a        <Param name="opacity" val="1" valType="code" updates="constant"/>\u000a        <Param name="colorSpace" val="rgb" valType="str" updates="constant"/>\u000a        <Param name="name" val="orRightBox_inst" valType="code" updates="None"/>\u000a        <Param name="color" val="white" valType="str" updates="constant"/>\u000a        <Param name="wrapWidth" val="" valType="code" updates="constant"/>\u000a        <Param name="stopVal" val="" valType="code" updates="constant"/>\u000a        <Param name="durationEstim" val="" valType="code" updates="None"/>\u000a        <Param name="pos" val="[.6, .7]" valType="code" updates="constant"/>\u000a        <Param name="flip" val="" valType="str" updates="constant"/>\u000a        <Param name="startEstim" val="" valType="code" updates="None"/>\u000a        <Param name="units" val="from exp settings" valType="str" updates="None"/>\u000a        <Param name="text" val="$orStimulus" valType="str" updates="set every repeat"/>\u000a        <Param name="startType" val="time (s)" valType="str" updates="None"/>\u000a        <Param name="ori" val="0" valType="code" updates="constant"/>\u000a        <Param name="stopType" val="duration (s)" valType="str" updates="None"/>\u000a        <Param name="startVal" val="0.0" valType="code" updates="None"/>\u000a        <Param name="font" val="Arial" valType="str" updates="constant"/>\u000a        <Param name="letterHeight" val="0.1" valType="code" updates="constant"/>\u000a      </TextComponent>\u000a    </Routine>\u000a  </Routines>\u000a  <Flow>\u000a    <LoopInitiator loopType="TrialHandler" name="blocks">\u000a      <Param name="conditionsFile" val="$taskFile" valType="str" updates="None"/>\u000a      <Param name="name" val="blocks" valType="code" updates="None"/>\u000a      <Param name="isTrials" val="False" valType="bool" updates="None"/>\u000a      <Param name="random seed" val="" valType="code" updates="None"/>\u000a      <Param name="loopType" val="sequential" valType="str" updates="None"/>\u000a      <Param name="nReps" val="1" valType="code" updates="None"/>\u000a      <Param name="endPoints" val="[0, 1]" valType="num" updates="None"/>\u000a      <Param name="conditions" val="None" valType="str" updates="None"/>\u000a      <Param name="Selected rows" val="" valType="str" updates="None"/>\u000a    </LoopInitiator>\u000a    <Routine name="instructions"/>\u000a    <LoopInitiator loopType="TrialHandler" name="trials">\u000a      <Param name="conditionsFile" val="$block" valType="str" updates="None"/>\u000a      <Param name="name" val="trials" valType="code" updates="None"/>\u000a      <Param name="isTrials" val="True" valType="bool" updates="None"/>\u000a      <Param name="random seed" val="" valType="code" updates="None"/>\u000a      <Param name="loopType" val="random" valType="str" updates="None"/>\u000a      <Param name="nReps" val="$nBlockRepeats" valType="code" updates="None"/>\u000a      <Param name="endPoints" val="[0, 1]" valType="num" updates="None"/>\u000a      <Param name="conditions" val="None" valType="str" updates="None"/>\u000a      <Param name="Selected rows" val="" valType="str" updates="None"/>\u000a    </LoopInitiator>\u000a    <Routine name="trial"/>\u000a    <LoopTerminator name="trials"/>\u000a    <LoopTerminator name="blocks"/>\u000a  </Flow>\u000a</PsychoPy2experiment>\u000a
p129
sg44
g1
(g45
g46
(dp130
VstimulusColour
p131
(lp132
I-1
aI1
aI-1
asVstimulus
p133
VDespise
p134
sVfeedbackResponse
p135
Ve
sVfeedbackAllowed
p136
Ve
sVtrialtype
p137
I4
sVrequiredResponse
p138
Vi
sVrequiredAllowed
p139
Vi
sVimageStimulus
p140
Vblank.png
p141
stRp142
sg64
I206318320
sg11
g83
sg6
g7
sg66
I0
sg21
I01
sg22
g23
sg67
g1
(g68
g46
(dp143
g16
g71
(g72
g73
g74
S'b'
tRp144
(I1
(I20
I1
tg76
I00
S'\x00\x00\x00\x00\x00\x00\x00\x00\x00\x00\x00\x00\x00\x00\x00\x00\x00\x00\x00\x00\x00\x00\x00\x00\x00\x00\x00\x00\x00\x00\x00\x00\x00\x00\x00\x00\x00\x00\x00\x00\x00\x00\x00\x00\x00\x00\x00\x00\x00\x00\x00\x00\x00\x00\x00\x00\x00\x00\x00\x00\x00\x00\x00\x00\x00\x00\x00\x00\x00\x00\x00\x00\x00\x00\x00\x00\x00\x00\x00\x00'
S'\x00\x01\x01\x00\x01\x01\x00\x01\x00\x00\x00\x01\x00\x01\x01\x01\x01\x01\x01\x00'
Ntbsg18
g91
(g73
(I0
tS'b'
tRp145
(I1
(I20
I1
tg30
(S'O4'
I0
I1
tRp146
(I3
S'|'
NNNI-1
I-1
I63
tbI00
(lp147
S'i'
aS'--'
p148
aS'--'
p149
aNaS'--'
p150
aS'--'
p151
aS'e'
aS'--'
p152
aS'e'
aS'e'
aS'i'
aS'--'
p153
aS'i'
aS'--'
p154
aS'--'
p155
aS'--'
p156
aS'--'
p157
aS'--'
p158
aS'--'
p159
aS'e'
atbsg70
g71
(g72
g73
g74
S'b'
tRp160
(I1
(I20
I1
tg76
I00
S'\x00\x00\x80?\x00\x00\x00\x00\x00\x00\x00\x00\x00\x00\x80?\x00\x00\x00\x00\x00\x00\x00\x00\x00\x00\x80?\x00\x00\x00\x00\x00\x00\x80?\x00\x00\x80?\x00\x00\x80?\x00\x00\x00\x00\x00\x00\x80?\x00\x00\x00\x00\x00\x00\x00\x00\x00\x00\x00\x00\x00\x00\x80?\x00\x00\x00\x00\x00\x00\x00\x00\x00\x00\x80?'
S'\x00\x00\x00\x00\x00\x00\x00\x00\x00\x00\x00\x00\x00\x00\x00\x00\x00\x00\x00\x00'
Ntbsg20
g71
(g72
g73
g74
S'b'
tRp161
(I1
(I20
I1
tg76
I00
S'\xc0\xfe\x0f=\x00\x00\x00\x00\x00\x00\x00\x00\x00\x00\x00\x00\x00\x00\x00\x00\x00\x00\x00\x00\x80D[=\x00\x00\x00\x00\xc0\x03K=\x80\xdbT=\xc0\x8aK=\x00\x00\x00\x00\x00LL=\x00\x00\x00\x00\x00\x00\x00\x00\x00\x00\x00\x00\x00\x00\x00\x00\x00\x00\x00\x00\x00\x00\x00\x00\x00uR='
S'\x00\x01\x01\x01\x01\x01\x00\x01\x00\x00\x00\x01\x00\x01\x01\x01\x01\x01\x01\x00'
Ntbsg17
g71
(g72
g73
g74
S'b'
tRp162
(I1
(I20
I1
tg76
I00
S'@\xd1\x11=\x00\x00\x00\x00\x00\x00\x00\x00\r\x8d\x0e@\x00\x00\x00\x00\x00\x00\x00\x00\x00\xfc[=\x00\x00\x00\x00\x00<M=\x00oV=\x00gM=\x00\x00\x00\x00\x00\x91M=\x00\x00\x00\x00\x00\x00\x00\x00\x00\x00\x00\x00\x00\x00\x00\x00\x00\x00\x00\x00\x00\x00\x00\x00@.T='
S'\x00\x01\x01\x00\x01\x01\x00\x01\x00\x00\x00\x01\x00\x01\x01\x01\x01\x01\x01\x00'
Ntbsg19
g71
(g72
g73
g74
S'b'
tRp163
(I1
(I20
I1
tg76
I00
S'\x00\x00\x00\x00\x00\x00\x00\x00\x00\x00\x00\x00\x00\x00\x00\x00\x00\x00\x00\x00\x00\x00\x00\x00\x00\x00\x00\x00\x00\x00\x00\x00\x00\x00\x00\x00\x00\x00\x00\x00\x00\x00\x00\x00\x00\x00\x00\x00\x00\x00\x00\x00\x00\x00\x00\x00\x00\x00\x00\x00\x00\x00\x00\x00\x00\x00\x00\x00\x00\x00\x00\x00\x00\x00\x00\x00\x00\x00\x00\x00'
S'\x00\x01\x01\x00\x01\x01\x00\x01\x00\x00\x00\x01\x00\x01\x01\x01\x01\x01\x01\x00'
Ntbsg77
g71
(g72
g73
g74
S'b'
tRp164
(I1
(I20
I1
tg76
I00
S'\x00\x00\x00\x00\x00\x00\x00\x00\x00\x00\x00\x00\x00\x00\xe0@\x00\x00\x00\x00\x00\x00\x00\x00\x00\x00@@\x00\x00\x00\x00\x00\x00\xa0@\x00\x00\x80?\x00\x00\xc0@\x00\x00\x00\x00\x00\x00\x80@\x00\x00\x00\x00\x00\x00\x00\x00\x00\x00\x00\x00\x00\x00\x00A\x00\x00\x00\x00\x00\x00\x00\x00\x00\x00\x00@'
S'\x00\x01\x01\x00\x01\x01\x00\x01\x00\x00\x00\x01\x00\x01\x01\x01\x00\x01\x01\x00'
Ntbsg15
g91
(g73
(I0
tS'b'
tRp165
(I1
(I20
I1
tg146
I00
(lp166
S'e'
aS'--'
p167
aS'--'
p168
aS'e'
aS'--'
p169
aS'--'
p170
aS'i'
aS'--'
p171
aS'i'
aS'i'
aS'e'
aS'--'
p172
aS'e'
aS'--'
p173
aS'--'
p174
aS'--'
p175
aS'--'
p176
aS'--'
p177
aS'--'
p178
aS'i'
atbstRp179
(dp180
g81
(dp181
g16
I01
sg70
I01
sg20
I01
sg18
I00
sg17
I01
sg19
I01
sg77
I01
sg15
I00
ssg83
g127
sg84
(lp182
g70
ag77
ag15
ag16
ag17
ag18
ag19
ag20
asg86
(lp183
I20
aI1
asbsg88
S'random'
p184
sg90
g91
(g73
(I0
tS'b'
tRp185
(I1
(I20
I1
tg93
I01
S'\x00\x00\x00\x00\t\x00\x00\x00\x13\x00\x00\x00\x06\x00\x00\x00\x0c\x00\x00\x00\x08\x00\x00\x00\n\x00\x00\x00\x03\x00\x00\x00\x10\x00\x00\x00\x12\x00\x00\x00\x0b\x00\x00\x00\r\x00\x00\x00\x04\x00\x00\x00\x05\x00\x00\x00\x02\x00\x00\x00\x07\x00\x00\x00\x0f\x00\x00\x00\x01\x00\x00\x00\x11\x00\x00\x00\x0e\x00\x00\x00'
tbsg94
I00
sg95
I1
sg96
I11
sg97
(lp186
g1
(g45
g46
(dp187
g131
(lp188
I1
aI1
aI1
asg133
V 
sg135
Vi
sg136
Vi
sg137
I1
sg138
Ve
sg139
Ve
sg140
Vflower1.jpg
p189
stRp190
ag1
(g45
g46
(dp191
g131
(lp192
I1
aI1
aI1
asg133
V 
sg135
Vi
sg136
Vi
sg137
I1
sg138
Ve
sg139
Ve
sg140
Vflower2.jpg
p193
stRp194
ag1
(g45
g46
(dp195
g131
(lp196
I1
aI1
aI1
asg133
V 
sg135
Vi
sg136
Vi
sg137
I1
sg138
Ve
sg139
Ve
sg140
Vflower3.jpg
p197
stRp198
ag1
(g45
g46
(dp199
g131
(lp200
I1
aI1
aI1
asg133
V 
sg135
Vi
sg136
Vi
sg137
I1
sg138
Ve
sg139
Ve
sg140
Vflower4.jpg
p201
stRp202
ag1
(g45
g46
(dp203
g131
(lp204
I1
aI1
aI1
asg133
V 
sg135
Vi
sg136
Vi
sg137
I1
sg138
Ve
sg139
Ve
sg140
Vflower5.jpg
p205
stRp206
ag1
(g45
g46
(dp207
g131
(lp208
I1
aI1
aI1
asg133
V 
sg135
Ve
sg136
Ve
sg137
I2
sg138
Vi
sg139
Vi
sg140
Vpic1.jpg
p209
stRp210
ag1
(g45
g46
(dp211
g131
(lp212
I1
aI1
aI1
asg133
V 
sg135
Ve
sg136
Ve
sg137
I2
sg138
Vi
sg139
Vi
sg140
Vpic2.jpg
p213
stRp214
ag1
(g45
g46
(dp215
g131
(lp216
I1
aI1
aI1
asg133
V 
sg135
Ve
sg136
Ve
sg137
I2
sg138
Vi
sg139
Vi
sg140
Vpic3.jpg
p217
stRp218
ag1
(g45
g46
(dp219
g131
(lp220
I1
aI1
aI1
asg133
V 
sg135
Ve
sg136
Ve
sg137
I2
sg138
Vi
sg139
Vi
sg140
Vpic4.jpg
p221
stRp222
ag1
(g45
g46
(dp223
g131
(lp224
I1
aI1
aI1
asg133
V 
sg135
Ve
sg136
Ve
sg137
I2
sg138
Vi
sg139
Vi
sg140
Vpic5.jpg
p225
stRp226
ag1
(g45
g46
(dp227
g131
(lp228
I-1
aI1
aI-1
asg133
VAttractive
p229
sg135
Vi
sg136
Vi
sg137
I3
sg138
Ve
sg139
Ve
sg140
g141
stRp230
ag1
(g45
g46
(dp231
g131
(lp232
I-1
aI1
aI-1
asg133
VEnjoy
p233
sg135
Vi
sg136
Vi
sg137
I3
sg138
Ve
sg139
Ve
sg140
g141
stRp234
ag1
(g45
g46
(dp235
g131
(lp236
I-1
aI1
aI-1
asg133
VFavorable
p237
sg135
Vi
sg136
Vi
sg137
I3
sg138
Ve
sg139
Ve
sg140
g141
stRp238
ag1
(g45
g46
(dp239
g131
(lp240
I-1
aI1
aI-1
asg133
VLikeable
p241
sg135
Vi
sg136
Vi
sg137
I3
sg138
Ve
sg139
Ve
sg140
g141
stRp242
ag1
(g45
g46
(dp243
g131
(lp244
I-1
aI1
aI-1
asg133
VLovely
p245
sg135
Vi
sg136
Vi
sg137
I3
sg138
Ve
sg139
Ve
sg140
g141
stRp246
ag1
(g45
g46
(dp247
g131
(lp248
I-1
aI1
aI-1
asg133
VAwful
p249
sg135
Ve
sg136
Ve
sg137
I4
sg138
Vi
sg139
Vi
sg140
g141
stRp250
ag142
ag1
(g45
g46
(dp251
g131
(lp252
I-1
aI1
aI-1
asg133
VDirty
p253
sg135
Ve
sg136
Ve
sg137
I4
sg138
Vi
sg139
Vi
sg140
g141
stRp254
ag1
(g45
g46
(dp255
g131
(lp256
I-1
aI1
aI-1
asg133
VDisgust
p257
sg135
Ve
sg136
Ve
sg137
I4
sg138
Vi
sg139
Vi
sg140
g141
stRp258
ag1
(g45
g46
(dp259
g131
(lp260
I-1
aI1
aI-1
asg133
VNasty
p261
sg135
Ve
sg136
Ve
sg137
I4
sg138
Vi
sg139
Vi
sg140
g141
stRp262
asg120
Nsg121
g29
(g93
S'\x10\x00\x00\x00'
tRp263
sg123
I8
sg124
I8
sg125
I20
sg126
I01
sbasS'saveWideText'
p264
I01
sS'thisEntry'
p265
(dp266
sS'version'
p267
S''
sS'_paramNamesSoFar'
p268
(lp269
g48
ag50
ag52
ag53
ag55
ag57
ag59
ag61
aVstimulusColour
p270
aVstimulus
p271
aVfeedbackResponse
p272
aVfeedbackAllowed
p273
aVtrialtype
p274
aVrequiredResponse
p275
aVrequiredAllowed
p276
aVimageStimulus
p277
asS'entries'
p278
(lp279
(dp280
g16
I0
sg28
g32
sg27
V1
sg273
Vi
sg15
S'e'
sg19
I0
sg24
V2
sg277
Vblank.png
p281
sS'trials.thisN'
p282
I0
sg18
S'i'
sg274
I3
sg52
I2
sg53
g54
sg276
Ve
sg55
g56
sS'blocks.thisN'
p283
I0
sS'blocks.thisTrialN'
p284
I0
sg33
g12
sg48
V 
sg272
Vi
sg275
Ve
sg34
g35
sg36
V
sg57
V 
sg61
V 
sS'trials.thisIndex'
p285
g29
(g93
S'\x03\x00\x00\x00'
tRp286
sg270
(lp287
I-1
aI1
aI-1
asS'blocks.thisIndex'
p288
g29
(g93
S'\x00\x00\x00\x00'
tRp289
sS'trials.thisRepN'
p290
I0
sg26
V
sg50
g100
sg271
VLikeable
p291
sg20
F0.034024953842163086
sS'trials.thisTrialN'
p292
I0
sg17
F0.034538984298706055
sS'blocks.thisRepN'
p293
I0
sg25
V
sg59
g101
sa(dp294
g16
I0
sg28
g32
sg27
V1
sg273
Vi
sg15
S'e'
sg19
I0
sg24
V2
sg277
g281
sS'trials.thisN'
p295
I1
sg18
S'i'
sg274
I3
sg52
I2
sg53
g54
sg276
Ve
sg55
g56
sS'blocks.thisN'
p296
I0
sS'blocks.thisTrialN'
p297
I0
sg33
g12
sg48
V 
sg272
Vi
sg275
Ve
sg34
g35
sg36
V
sg57
V 
sg61
V 
sS'trials.thisIndex'
p298
g29
(g93
S'\x02\x00\x00\x00'
tRp299
sg270
(lp300
I-1
aI1
aI-1
asS'blocks.thisIndex'
p301
g289
sS'trials.thisRepN'
p302
I0
sg26
V
sg50
g100
sg271
VFavorable
p303
sg20
F0.04943084716796875
sS'trials.thisTrialN'
p304
I1
sg17
F0.049978971481323242
sS'blocks.thisRepN'
p305
I0
sg25
V
sg59
g101
sa(dp306
g16
I0
sg28
g32
sg27
V1
sg273
Ve
sg15
S'i'
sg19
I0
sg24
V2
sg277
g281
sS'trials.thisN'
p307
I2
sg18
S'e'
sg274
I4
sg52
I2
sg53
g54
sg276
Vi
sg55
g56
sS'blocks.thisN'
p308
I0
sS'blocks.thisTrialN'
p309
I0
sg33
g12
sg48
V 
sg272
Ve
sg275
Vi
sg34
g35
sg36
V
sg57
V 
sg61
V 
sS'trials.thisIndex'
p310
g29
(g93
S'\x08\x00\x00\x00'
tRp311
sg270
(lp312
I-1
aI1
aI-1
asS'blocks.thisIndex'
p313
g289
sS'trials.thisRepN'
p314
I0
sg26
V
sg50
g100
sg271
VDisgust
p315
sg20
F0.050019025802612305
sS'trials.thisTrialN'
p316
I2
sg17
F0.050538063049316406
sS'blocks.thisRepN'
p317
I0
sg25
V
sg59
g101
sa(dp318
g16
I0
sg28
g32
sg27
V1
sg273
Vi
sg15
S'e'
sg19
I0
sg24
V2
sg277
g281
sS'trials.thisN'
p319
I3
sg18
S'i'
sg274
I3
sg52
I2
sg53
g54
sg276
Ve
sg55
g56
sS'blocks.thisN'
p320
I0
sS'blocks.thisTrialN'
p321
I0
sg33
g12
sg48
V 
sg272
Vi
sg275
Ve
sg34
g35
sg36
V
sg57
V 
sg61
V 
sS'trials.thisIndex'
p322
g29
(g93
S'\x04\x00\x00\x00'
tRp323
sg270
(lp324
I-1
aI1
aI-1
asS'blocks.thisIndex'
p325
g289
sS'trials.thisRepN'
p326
I0
sg26
V
sg50
g100
sg271
VLovely
p327
sg20
F0.035043954849243164
sS'trials.thisTrialN'
p328
I3
sg17
F0.035245895385742188
sS'blocks.thisRepN'
p329
I0
sg25
V
sg59
g101
sa(dp330
g16
I0
sg28
g32
sg27
V1
sg273
Vi
sg15
S'e'
sg19
I0
sg24
V2
sg277
g281
sS'trials.thisN'
p331
I4
sg18
S'i'
sg274
I3
sg52
I2
sg53
g54
sg276
Ve
sg55
g56
sS'blocks.thisN'
p332
I0
sS'blocks.thisTrialN'
p333
I0
sg33
g12
sg48
V 
sg272
Vi
sg275
Ve
sg34
g35
sg36
V
sg57
V 
sg61
V 
sS'trials.thisIndex'
p334
g29
(g93
S'\x01\x00\x00\x00'
tRp335
sg270
(lp336
I-1
aI1
aI-1
asS'blocks.thisIndex'
p337
g289
sS'trials.thisRepN'
p338
I0
sg26
V
sg50
g100
sg271
VEnjoy
p339
sg20
F0.051559925079345703
sS'trials.thisTrialN'
p340
I4
sg17
F0.051774978637695312
sS'blocks.thisRepN'
p341
I0
sg25
V
sg59
g101
sa(dp342
g16
I0
sg28
g32
sg27
V1
sg273
Ve
sg15
S'i'
sg19
I0
sg24
V2
sg277
g281
sS'trials.thisN'
p343
I5
sg18
S'e'
sg274
I4
sg52
I2
sg53
g54
sg276
Vi
sg55
g56
sS'blocks.thisN'
p344
I0
sS'blocks.thisTrialN'
p345
I0
sg33
g12
sg48
V 
sg272
Ve
sg275
Vi
sg34
g35
sg36
V
sg57
V 
sg61
V 
sS'trials.thisIndex'
p346
g29
(g93
S'\x06\x00\x00\x00'
tRp347
sg270
(lp348
I-1
aI1
aI-1
asS'blocks.thisIndex'
p349
g289
sS'trials.thisRepN'
p350
I0
sg26
V
sg50
g100
sg271
VDespise
p351
sg20
F0.051182985305786133
sS'trials.thisTrialN'
p352
I5
sg17
F0.051414966583251953
sS'blocks.thisRepN'
p353
I0
sg25
V
sg59
g101
sa(dp354
g16
I0
sg28
g32
sg27
V1
sg273
Ve
sg15
S'i'
sg19
I0
sg24
V2
sg277
g281
sS'trials.thisN'
p355
I6
sg18
S'e'
sg274
I4
sg52
I2
sg53
g54
sg276
Vi
sg55
g56
sS'blocks.thisN'
p356
I0
sS'blocks.thisTrialN'
p357
I0
sg33
g12
sg48
V 
sg272
Ve
sg275
Vi
sg34
g35
sg36
V
sg57
V 
sg61
V 
sS'trials.thisIndex'
p358
g29
(g93
S'\t\x00\x00\x00'
tRp359
sg270
(lp360
I-1
aI1
aI-1
asS'blocks.thisIndex'
p361
g289
sS'trials.thisRepN'
p362
I0
sg26
V
sg50
g100
sg271
VNasty
p363
sg20
F0.051164865493774414
sS'trials.thisTrialN'
p364
I6
sg17
F0.051421165466308594
sS'blocks.thisRepN'
p365
I0
sg25
V
sg59
g101
sa(dp366
g16
I0
sg28
g32
sg27
V1
sg273
Ve
sg15
S'i'
sg19
I0
sg24
V2
sg277
g281
sS'trials.thisN'
p367
I7
sg18
S'e'
sg274
I4
sg52
I2
sg53
g54
sg276
Vi
sg55
g56
sS'blocks.thisN'
p368
I0
sS'blocks.thisTrialN'
p369
I0
sg33
g12
sg48
V 
sg272
Ve
sg275
Vi
sg34
g35
sg36
V
sg57
V 
sg61
V 
sS'trials.thisIndex'
p370
g29
(g93
S'\x05\x00\x00\x00'
tRp371
sg270
(lp372
I-1
aI1
aI-1
asS'blocks.thisIndex'
p373
g289
sS'trials.thisRepN'
p374
I0
sg26
V
sg50
g100
sg271
VAwful
p375
sg20
F0.050985097885131836
sS'trials.thisTrialN'
p376
I7
sg17
F0.051283121109008789
sS'blocks.thisRepN'
p377
I0
sg25
V
sg59
g101
sa(dp378
g16
I0
sg28
g32
sg27
V1
sg273
Ve
sg15
S'i'
sg19
I0
sg24
V2
sg277
g281
sS'trials.thisN'
p379
I8
sg18
S'e'
sg274
I4
sg52
I2
sg53
g54
sg276
Vi
sg55
g56
sS'blocks.thisN'
p380
I0
sS'blocks.thisTrialN'
p381
I0
sg33
g12
sg48
V 
sg272
Ve
sg275
Vi
sg34
g35
sg36
V
sg57
V 
sg61
V 
sS'trials.thisIndex'
p382
g29
(g93
S'\x07\x00\x00\x00'
tRp383
sg270
(lp384
I-1
aI1
aI-1
asS'blocks.thisIndex'
p385
g289
sS'trials.thisRepN'
p386
I0
sg26
V
sg50
g100
sg271
VDirty
p387
sg20
F0.052736043930053711
sS'trials.thisTrialN'
p388
I8
sg17
F0.052784919738769531
sS'blocks.thisRepN'
p389
I0
sg25
V
sg59
g101
sa(dp390
g16
I0
sg28
g32
sg27
V1
sg273
Vi
sg15
S'e'
sg19
I0
sg24
V2
sg277
g281
sS'trials.thisN'
p391
I9
sg18
S'i'
sg274
I3
sg52
I2
sg53
g54
sg276
Ve
sg55
g56
sS'blocks.thisN'
p392
I0
sS'blocks.thisTrialN'
p393
I0
sg33
g12
sg48
V 
sg272
Vi
sg275
Ve
sg34
g35
sg36
V
sg57
V 
sg61
V 
sS'trials.thisIndex'
p394
g29
(g93
S'\x00\x00\x00\x00'
tRp395
sg270
(lp396
I-1
aI1
aI-1
asS'blocks.thisIndex'
p397
g289
sS'trials.thisRepN'
p398
I0
sg26
V
sg50
g100
sg271
VAttractive
p399
sg20
F0.049451112747192383
sS'trials.thisTrialN'
p400
I9
sg17
F0.050006866455078125
sS'blocks.thisRepN'
p401
I0
sg25
V
sg59
g101
sa(dp402
g16
I0
sg28
g32
sg27
V1
sg273
Vi
sg15
S'e'
sg19
I0
sg24
V2
sg277
g281
sS'trials.thisN'
p403
I10
sg18
S'i'
sg274
I3
sg52
I2
sg53
g54
sg276
Ve
sg55
g56
sS'blocks.thisN'
p404
I0
sS'blocks.thisTrialN'
p405
I0
sg33
g12
sg48
V 
sg272
Vi
sg275
Ve
sg34
g35
sg36
V
sg57
V 
sg61
V 
sS'trials.thisIndex'
p406
g29
(g93
S'\x01\x00\x00\x00'
tRp407
sg270
g336
sS'blocks.thisIndex'
p408
g289
sS'trials.thisRepN'
p409
I1
sg26
V
sg50
g100
sg271
g339
sg20
F0.050972938537597656
sS'trials.thisTrialN'
p410
I0
sg17
F0.051283121109008789
sS'blocks.thisRepN'
p411
I0
sg25
V
sg59
g101
sa(dp412
g16
I0
sg28
g32
sg27
V1
sg273
Vi
sg15
S'e'
sg19
I0
sg24
V2
sg277
g281
sS'trials.thisN'
p413
I11
sg18
S'i'
sg274
I3
sg52
I2
sg53
g54
sg276
Ve
sg55
g56
sS'blocks.thisN'
p414
I0
sS'blocks.thisTrialN'
p415
I0
sg33
g12
sg48
V 
sg272
Vi
sg275
Ve
sg34
g35
sg36
V
sg57
V 
sg61
V 
sS'trials.thisIndex'
p416
g29
(g93
S'\x04\x00\x00\x00'
tRp417
sg270
g324
sS'blocks.thisIndex'
p418
g289
sS'trials.thisRepN'
p419
I1
sg26
V
sg50
g100
sg271
g327
sg20
F0.049922943115234375
sS'trials.thisTrialN'
p420
I1
sg17
F0.050242900848388672
sS'blocks.thisRepN'
p421
I0
sg25
V
sg59
g101
sa(dp422
g16
I0
sg28
g32
sg27
V1
sg273
Ve
sg15
S'i'
sg19
I0
sg24
V2
sg277
g281
sS'trials.thisN'
p423
I12
sg18
S'e'
sg274
I4
sg52
I2
sg53
g54
sg276
Vi
sg55
g56
sS'blocks.thisN'
p424
I0
sS'blocks.thisTrialN'
p425
I0
sg33
g12
sg48
V 
sg272
Ve
sg275
Vi
sg34
g35
sg36
V
sg57
V 
sg61
V 
sS'trials.thisIndex'
p426
g29
(g93
S'\x07\x00\x00\x00'
tRp427
sg270
g384
sS'blocks.thisIndex'
p428
g289
sS'trials.thisRepN'
p429
I1
sg26
V
sg50
g100
sg271
g387
sg20
F0.035564899444580078
sS'trials.thisTrialN'
p430
I2
sg17
F0.035786867141723633
sS'blocks.thisRepN'
p431
I0
sg25
V
sg59
g101
sa(dp432
g16
I0
sg28
g32
sg27
V1
sg273
Vi
sg15
S'e'
sg19
I0
sg24
V2
sg277
g281
sS'trials.thisN'
p433
I13
sg18
S'i'
sg274
I3
sg52
I2
sg53
g54
sg276
Ve
sg55
g56
sS'blocks.thisN'
p434
I0
sS'blocks.thisTrialN'
p435
I0
sg33
g12
sg48
V 
sg272
Vi
sg275
Ve
sg34
g35
sg36
V
sg57
V 
sg61
V 
sS'trials.thisIndex'
p436
g29
(g93
S'\x03\x00\x00\x00'
tRp437
sg270
g287
sS'blocks.thisIndex'
p438
g289
sS'trials.thisRepN'
p439
I1
sg26
V
sg50
g100
sg271
g291
sg20
F0.051244020462036133
sS'trials.thisTrialN'
p440
I3
sg17
F0.051491022109985352
sS'blocks.thisRepN'
p441
I0
sg25
V
sg59
g101
sa(dp442
g16
I0
sg28
g32
sg27
V1
sg273
Ve
sg15
S'i'
sg19
I0
sg24
V2
sg277
g281
sS'trials.thisN'
p443
I14
sg18
S'e'
sg274
I4
sg52
I2
sg53
g54
sg276
Vi
sg55
g56
sS'blocks.thisN'
p444
I0
sS'blocks.thisTrialN'
p445
I0
sg33
g12
sg48
V 
sg272
Ve
sg275
Vi
sg34
g35
sg36
V
sg57
V 
sg61
V 
sS'trials.thisIndex'
p446
g29
(g93
S'\x05\x00\x00\x00'
tRp447
sg270
g372
sS'blocks.thisIndex'
p448
g289
sS'trials.thisRepN'
p449
I1
sg26
V
sg50
g100
sg271
g375
sg20
F0.051078081130981445
sS'trials.thisTrialN'
p450
I4
sg17
F0.051450967788696289
sS'blocks.thisRepN'
p451
I0
sg25
V
sg59
g101
sa(dp452
g16
I0
sg28
g32
sg27
V1
sg273
Vi
sg15
S'e'
sg19
I0
sg24
V2
sg277
g281
sS'trials.thisN'
p453
I15
sg18
S'i'
sg274
I3
sg52
I2
sg53
g54
sg276
Ve
sg55
g56
sS'blocks.thisN'
p454
I0
sS'blocks.thisTrialN'
p455
I0
sg33
g12
sg48
V 
sg272
Vi
sg275
Ve
sg34
g35
sg36
V
sg57
V 
sg61
V 
sS'trials.thisIndex'
p456
g29
(g93
S'\x02\x00\x00\x00'
tRp457
sg270
g300
sS'blocks.thisIndex'
p458
g289
sS'trials.thisRepN'
p459
I1
sg26
V
sg50
g100
sg271
g303
sg20
F0.050102949142456055
sS'trials.thisTrialN'
p460
I5
sg17
F0.050202846527099609
sS'blocks.thisRepN'
p461
I0
sg25
V
sg59
g101
sa(dp462
g16
I0
sg28
g32
sg27
V1
sg273
Ve
sg15
S'i'
sg19
I0
sg24
V2
sg277
g281
sS'trials.thisN'
p463
I16
sg18
S'e'
sg274
I4
sg52
I2
sg53
g54
sg276
Vi
sg55
g56
sS'blocks.thisN'
p464
I0
sS'blocks.thisTrialN'
p465
I0
sg33
g12
sg48
V 
sg272
Ve
sg275
Vi
sg34
g35
sg36
V
sg57
V 
sg61
V 
sS'trials.thisIndex'
p466
g29
(g93
S'\x06\x00\x00\x00'
tRp467
sg270
g348
sS'blocks.thisIndex'
p468
g289
sS'trials.thisRepN'
p469
I1
sg26
V
sg50
g100
sg271
g351
sg20
F0.050517797470092773
sS'trials.thisTrialN'
p470
I6
sg17
F0.050817966461181641
sS'blocks.thisRepN'
p471
I0
sg25
V
sg59
g101
sa(dp472
g16
I0
sg28
g32
sg27
V1
sg273
Ve
sg15
S'i'
sg19
I0
sg24
V2
sg277
g281
sS'trials.thisN'
p473
I17
sg18
S'e'
sg274
I4
sg52
I2
sg53
g54
sg276
Vi
sg55
g56
sS'blocks.thisN'
p474
I0
sS'blocks.thisTrialN'
p475
I0
sg33
g12
sg48
V 
sg272
Ve
sg275
Vi
sg34
g35
sg36
V
sg57
V 
sg61
V 
sS'trials.thisIndex'
p476
g29
(g93
S'\t\x00\x00\x00'
tRp477
sg270
g360
sS'blocks.thisIndex'
p478
g289
sS'trials.thisRepN'
p479
I1
sg26
V
sg50
g100
sg271
g363
sg20
F0.052318811416625977
sS'trials.thisTrialN'
p480
I7
sg17
F0.052518129348754883
sS'blocks.thisRepN'
p481
I0
sg25
V
sg59
g101
sa(dp482
g16
I0
sg28
g32
sg27
V1
sg273
Vi
sg15
S'e'
sg19
I0
sg24
V2
sg277
g281
sS'trials.thisN'
p483
I18
sg18
S'i'
sg274
I3
sg52
I2
sg53
g54
sg276
Ve
sg55
g56
sS'blocks.thisN'
p484
I0
sS'blocks.thisTrialN'
p485
I0
sg33
g12
sg48
V 
sg272
Vi
sg275
Ve
sg34
g35
sg36
V
sg57
V 
sg61
V 
sS'trials.thisIndex'
p486
g29
(g93
S'\x00\x00\x00\x00'
tRp487
sg270
g396
sS'blocks.thisIndex'
p488
g289
sS'trials.thisRepN'
p489
I1
sg26
V
sg50
g100
sg271
g399
sg20
F0.049810886383056641
sS'trials.thisTrialN'
p490
I8
sg17
F0.050446987152099609
sS'blocks.thisRepN'
p491
I0
sg25
V
sg59
g101
sa(dp492
g16
I0
sg28
g32
sg27
V1
sg273
Ve
sg15
S'i'
sg19
I0
sg24
V2
sg277
g281
sS'trials.thisN'
p493
I19
sg18
S'e'
sg274
I4
sg52
I2
sg53
g54
sg276
Vi
sg55
g56
sS'blocks.thisN'
p494
I0
sS'blocks.thisTrialN'
p495
I0
sg33
g12
sg48
V 
sg272
Ve
sg275
Vi
sg34
g35
sg36
V
sg57
V 
sg61
V 
sS'trials.thisIndex'
p496
g29
(g93
S'\x08\x00\x00\x00'
tRp497
sg270
g312
sS'blocks.thisIndex'
p498
g289
sS'trials.thisRepN'
p499
I1
sg26
V
sg50
g100
sg271
g315
sg20
F0.049993991851806641
sS'trials.thisTrialN'
p500
I9
sg17
F0.05028986930847168
sS'blocks.thisRepN'
p501
I0
sg25
V
sg59
g101
sa(dp502
g16
I0
sg28
g32
sg27
V1
sVfeedbackAllowed
p503
Ve
sg15
S'i'
sg19
I0
sg24
V2
sVimageStimulus
p504
Vpic5.jpg
p505
sS'trials.thisN'
p506
I0
sg18
S'e'
sVtrialtype
p507
I2
sg52
I2
sg53
V 
sVrequiredAllowed
p508
Vi
sg55
V 
sS'blocks.thisN'
p509
I1
sS'blocks.thisTrialN'
p510
I1
sg33
g12
sg48
V 
sVfeedbackResponse
p511
Ve
sVrequiredResponse
p512
Vi
sg34
g35
sg36
V
sg57
g58
sg61
g62
sS'trials.thisIndex'
p513
g29
(g93
S'\t\x00\x00\x00'
tRp514
sVstimulusColour
p515
(lp516
I1
aI1
aI1
asS'blocks.thisIndex'
p517
g29
(g93
S'\x01\x00\x00\x00'
tRp518
sS'trials.thisRepN'
p519
I0
sg26
V
sg50
g104
sVstimulus
p520
V 
sg20
F0.067476034164428711
sS'trials.thisTrialN'
p521
I0
sg17
F0.068588018417358398
sS'blocks.thisRepN'
p522
I0
sg25
V
sg59
g105
sa(dp523
g16
I0
sg28
g32
sg27
V1
sg503
Vi
sg15
S'e'
sg19
I0
sg24
V2
sg504
Vflower2.jpg
p524
sS'trials.thisN'
p525
I1
sg18
S'i'
sg507
I1
sg52
I2
sg53
V 
sg508
Ve
sg55
V 
sS'blocks.thisN'
p526
I1
sS'blocks.thisTrialN'
p527
I1
sg33
g12
sg48
V 
sg511
Vi
sg512
Ve
sg34
g35
sg36
V
sg57
g58
sg61
g62
sS'trials.thisIndex'
p528
g29
(g93
S'\x01\x00\x00\x00'
tRp529
sg515
(lp530
I1
aI1
aI1
asS'blocks.thisIndex'
p531
g518
sS'trials.thisRepN'
p532
I0
sg26
V
sg50
g104
sg520
V 
sg20
F0.051866054534912109
sS'trials.thisTrialN'
p533
I1
sg17
F0.052297115325927734
sS'blocks.thisRepN'
p534
I0
sg25
V
sg59
g105
sa(dp535
g16
I0
sg28
g32
sg27
V1
sg503
Vi
sg15
S'e'
sg19
I0
sg24
V2
sg504
Vflower3.jpg
p536
sS'trials.thisN'
p537
I2
sg18
S'i'
sg507
I1
sg52
I2
sg53
V 
sg508
Ve
sg55
V 
sS'blocks.thisN'
p538
I1
sS'blocks.thisTrialN'
p539
I1
sg33
g12
sg48
V 
sg511
Vi
sg512
Ve
sg34
g35
sg36
V
sg57
g58
sg61
g62
sS'trials.thisIndex'
p540
g29
(g93
S'\x02\x00\x00\x00'
tRp541
sg515
(lp542
I1
aI1
aI1
asS'blocks.thisIndex'
p543
g518
sS'trials.thisRepN'
p544
I0
sg26
V
sg50
g104
sg520
V 
sg20
F0.052392005920410156
sS'trials.thisTrialN'
p545
I2
sg17
F0.052811861038208008
sS'blocks.thisRepN'
p546
I0
sg25
V
sg59
g105
sa(dp547
g16
I0
sg28
g32
sg27
V1
sg503
Vi
sg15
S'e'
sg19
I0
sg24
V2
sg504
Vflower5.jpg
p548
sS'trials.thisN'
p549
I3
sg18
S'i'
sg507
I1
sg52
I2
sg53
V 
sg508
Ve
sg55
V 
sS'blocks.thisN'
p550
I1
sS'blocks.thisTrialN'
p551
I1
sg33
g12
sg48
V 
sg511
Vi
sg512
Ve
sg34
g35
sg36
V
sg57
g58
sg61
g62
sS'trials.thisIndex'
p552
g29
(g93
S'\x04\x00\x00\x00'
tRp553
sg515
(lp554
I1
aI1
aI1
asS'blocks.thisIndex'
p555
g518
sS'trials.thisRepN'
p556
I0
sg26
V
sg50
g104
sg520
V 
sg20
F0.051204919815063477
sS'trials.thisTrialN'
p557
I3
sg17
F0.051712989807128906
sS'blocks.thisRepN'
p558
I0
sg25
V
sg59
g105
sa(dp559
g16
I0
sg28
g32
sg27
V1
sg503
Vi
sg15
S'e'
sg19
I0
sg24
V2
sg504
Vflower4.jpg
p560
sS'trials.thisN'
p561
I4
sg18
S'i'
sg507
I1
sg52
I2
sg53
V 
sg508
Ve
sg55
V 
sS'blocks.thisN'
p562
I1
sS'blocks.thisTrialN'
p563
I1
sg33
g12
sg48
V 
sg511
Vi
sg512
Ve
sg34
g35
sg36
V
sg57
g58
sg61
g62
sS'trials.thisIndex'
p564
g29
(g93
S'\x03\x00\x00\x00'
tRp565
sg515
(lp566
I1
aI1
aI1
asS'blocks.thisIndex'
p567
g518
sS'trials.thisRepN'
p568
I0
sg26
V
sg50
g104
sg520
V 
sg20
F0.049805164337158203
sS'trials.thisTrialN'
p569
I4
sg17
F0.050322055816650391
sS'blocks.thisRepN'
p570
I0
sg25
V
sg59
g105
sa(dp571
g16
I0
sg28
g32
sg27
V1
sg503
Vi
sg15
S'e'
sg19
I0
sg24
V2
sg504
Vflower1.jpg
p572
sS'trials.thisN'
p573
I5
sg18
S'i'
sg507
I1
sg52
I2
sg53
V 
sg508
Ve
sg55
V 
sS'blocks.thisN'
p574
I1
sS'blocks.thisTrialN'
p575
I1
sg33
g12
sg48
V 
sg511
Vi
sg512
Ve
sg34
g35
sg36
V
sg57
g58
sg61
g62
sS'trials.thisIndex'
p576
g29
(g93
S'\x00\x00\x00\x00'
tRp577
sg515
(lp578
I1
aI1
aI1
asS'blocks.thisIndex'
p579
g518
sS'trials.thisRepN'
p580
I0
sg26
V
sg50
g104
sg520
V 
sg20
F0.05074000358581543
sS'trials.thisTrialN'
p581
I5
sg17
F0.051198005676269531
sS'blocks.thisRepN'
p582
I0
sg25
V
sg59
g105
sa(dp583
g16
I0
sg28
g32
sg27
V1
sg503
Ve
sg15
S'i'
sg19
I0
sg24
V2
sg504
Vpic1.jpg
p584
sS'trials.thisN'
p585
I6
sg18
S'e'
sg507
I2
sg52
I2
sg53
V 
sg508
Vi
sg55
V 
sS'blocks.thisN'
p586
I1
sS'blocks.thisTrialN'
p587
I1
sg33
g12
sg48
V 
sg511
Ve
sg512
Vi
sg34
g35
sg36
V
sg57
g58
sg61
g62
sS'trials.thisIndex'
p588
g29
(g93
S'\x05\x00\x00\x00'
tRp589
sg515
(lp590
I1
aI1
aI1
asS'blocks.thisIndex'
p591
g518
sS'trials.thisRepN'
p592
I0
sg26
V
sg50
g104
sg520
V 
sg20
F0.049699783325195312
sS'trials.thisTrialN'
p593
I6
sg17
F0.050204992294311523
sS'blocks.thisRepN'
p594
I0
sg25
V
sg59
g105
sa(dp595
g16
I0
sg28
g32
sg27
V1
sg503
Ve
sg15
S'i'
sg19
I0
sg24
V2
sg504
Vpic4.jpg
p596
sS'trials.thisN'
p597
I7
sg18
S'e'
sg507
I2
sg52
I2
sg53
V 
sg508
Vi
sg55
V 
sS'blocks.thisN'
p598
I1
sS'blocks.thisTrialN'
p599
I1
sg33
g12
sg48
V 
sg511
Ve
sg512
Vi
sg34
g35
sg36
V
sg57
g58
sg61
g62
sS'trials.thisIndex'
p600
g29
(g93
S'\x08\x00\x00\x00'
tRp601
sg515
(lp602
I1
aI1
aI1
asS'blocks.thisIndex'
p603
g518
sS'trials.thisRepN'
p604
I0
sg26
V
sg50
g104
sg520
V 
sg20
F0.049777030944824219
sS'trials.thisTrialN'
p605
I7
sg17
F0.050306081771850586
sS'blocks.thisRepN'
p606
I0
sg25
V
sg59
g105
sa(dp607
g16
I0
sg28
g32
sg27
V1
sg503
Ve
sg15
S'i'
sg19
I0
sg24
V2
sg504
Vpic2.jpg
p608
sS'trials.thisN'
p609
I8
sg18
S'e'
sg507
I2
sg52
I2
sg53
V 
sg508
Vi
sg55
V 
sS'blocks.thisN'
p610
I1
sS'blocks.thisTrialN'
p611
I1
sg33
g12
sg48
V 
sg511
Ve
sg512
Vi
sg34
g35
sg36
V
sg57
g58
sg61
g62
sS'trials.thisIndex'
p612
g29
(g93
S'\x06\x00\x00\x00'
tRp613
sg515
(lp614
I1
aI1
aI1
asS'blocks.thisIndex'
p615
g518
sS'trials.thisRepN'
p616
I0
sg26
V
sg50
g104
sg520
V 
sg20
F0.050909042358398438
sS'trials.thisTrialN'
p617
I8
sg17
F0.051168918609619141
sS'blocks.thisRepN'
p618
I0
sg25
V
sg59
g105
sa(dp619
g16
I0
sg28
g32
sg27
V1
sg503
Ve
sg15
S'i'
sg19
I0
sg24
V2
sg504
Vpic3.jpg
p620
sS'trials.thisN'
p621
I9
sg18
S'e'
sg507
I2
sg52
I2
sg53
V 
sg508
Vi
sg55
V 
sS'blocks.thisN'
p622
I1
sS'blocks.thisTrialN'
p623
I1
sg33
g12
sg48
V 
sg511
Ve
sg512
Vi
sg34
g35
sg36
V
sg57
g58
sg61
g62
sS'trials.thisIndex'
p624
g29
(g93
S'\x07\x00\x00\x00'
tRp625
sg515
(lp626
I1
aI1
aI1
asS'blocks.thisIndex'
p627
g518
sS'trials.thisRepN'
p628
I0
sg26
V
sg50
g104
sg520
V 
sg20
F0.051279067993164062
sS'trials.thisTrialN'
p629
I9
sg17
F0.051742076873779297
sS'blocks.thisRepN'
p630
I0
sg25
V
sg59
g105
sa(dp631
g16
I0
sg28
g32
sg27
V1
sg503
Vi
sg15
S'e'
sg19
I0
sg24
V2
sg504
g536
sS'trials.thisN'
p632
I10
sg18
S'i'
sg507
I1
sg52
I2
sg53
V 
sg508
Ve
sg55
V 
sS'blocks.thisN'
p633
I1
sS'blocks.thisTrialN'
p634
I1
sg33
g12
sg48
V 
sg511
Vi
sg512
Ve
sg34
g35
sg36
V
sg57
g58
sg61
g62
sS'trials.thisIndex'
p635
g29
(g93
S'\x02\x00\x00\x00'
tRp636
sg515
g542
sS'blocks.thisIndex'
p637
g518
sS'trials.thisRepN'
p638
I1
sg26
V
sg50
g104
sg520
V 
sg20
F0.050598859786987305
sS'trials.thisTrialN'
p639
I0
sg17
F0.0511322021484375
sS'blocks.thisRepN'
p640
I0
sg25
V
sg59
g105
sa(dp641
g16
I0
sg28
g32
sg27
V1
sg503
Vi
sg15
S'e'
sg19
I0
sg24
V2
sg504
g548
sS'trials.thisN'
p642
I11
sg18
S'i'
sg507
I1
sg52
I2
sg53
V 
sg508
Ve
sg55
V 
sS'blocks.thisN'
p643
I1
sS'blocks.thisTrialN'
p644
I1
sg33
g12
sg48
V 
sg511
Vi
sg512
Ve
sg34
g35
sg36
V
sg57
g58
sg61
g62
sS'trials.thisIndex'
p645
g29
(g93
S'\x04\x00\x00\x00'
tRp646
sg515
g554
sS'blocks.thisIndex'
p647
g518
sS'trials.thisRepN'
p648
I1
sg26
V
sg50
g104
sg520
V 
sg20
F0.051208019256591797
sS'trials.thisTrialN'
p649
I1
sg17
F0.05168604850769043
sS'blocks.thisRepN'
p650
I0
sg25
V
sg59
g105
sa(dp651
g16
I0
sg28
g32
sg27
V1
sg503
Vi
sg15
S'e'
sg19
I0
sg24
V2
sg504
g572
sS'trials.thisN'
p652
I12
sg18
S'i'
sg507
I1
sg52
I2
sg53
V 
sg508
Ve
sg55
V 
sS'blocks.thisN'
p653
I1
sS'blocks.thisTrialN'
p654
I1
sg33
g12
sg48
V 
sg511
Vi
sg512
Ve
sg34
g35
sg36
V
sg57
g58
sg61
g62
sS'trials.thisIndex'
p655
g29
(g93
S'\x00\x00\x00\x00'
tRp656
sg515
g578
sS'blocks.thisIndex'
p657
g518
sS'trials.thisRepN'
p658
I1
sg26
V
sg50
g104
sg520
V 
sg20
F0.052223920822143555
sS'trials.thisTrialN'
p659
I2
sg17
F0.052461147308349609
sS'blocks.thisRepN'
p660
I0
sg25
V
sg59
g105
sa(dp661
g16
I0
sg28
g32
sg27
V1
sg503
Ve
sg15
S'i'
sg19
I0
sg24
V2
sg504
g620
sS'trials.thisN'
p662
I13
sg18
S'e'
sg507
I2
sg52
I2
sg53
V 
sg508
Vi
sg55
V 
sS'blocks.thisN'
p663
I1
sS'blocks.thisTrialN'
p664
I1
sg33
g12
sg48
V 
sg511
Ve
sg512
Vi
sg34
g35
sg36
V
sg57
g58
sg61
g62
sS'trials.thisIndex'
p665
g29
(g93
S'\x07\x00\x00\x00'
tRp666
sg515
g626
sS'blocks.thisIndex'
p667
g518
sS'trials.thisRepN'
p668
I1
sg26
V
sg50
g104
sg520
V 
sg20
F0.051864862442016602
sS'trials.thisTrialN'
p669
I3
sg17
F0.052278995513916016
sS'blocks.thisRepN'
p670
I0
sg25
V
sg59
g105
sa(dp671
g16
I0
sg28
g32
sg27
V1
sg503
Ve
sg15
S'i'
sg19
I0
sg24
V2
sg504
g584
sS'trials.thisN'
p672
I14
sg18
S'e'
sg507
I2
sg52
I2
sg53
V 
sg508
Vi
sg55
V 
sS'blocks.thisN'
p673
I1
sS'blocks.thisTrialN'
p674
I1
sg33
g12
sg48
V 
sg511
Ve
sg512
Vi
sg34
g35
sg36
V
sg57
g58
sg61
g62
sS'trials.thisIndex'
p675
g29
(g93
S'\x05\x00\x00\x00'
tRp676
sg515
g590
sS'blocks.thisIndex'
p677
g518
sS'trials.thisRepN'
p678
I1
sg26
V
sg50
g104
sg520
V 
sg20
F0.049689054489135742
sS'trials.thisTrialN'
p679
I4
sg17
F0.05020904541015625
sS'blocks.thisRepN'
p680
I0
sg25
V
sg59
g105
sa(dp681
g16
I0
sg28
g32
sg27
V1
sg503
Vi
sg15
S'e'
sg19
I0
sg24
V2
sg504
g524
sS'trials.thisN'
p682
I15
sg18
S'i'
sg507
I1
sg52
I2
sg53
V 
sg508
Ve
sg55
V 
sS'blocks.thisN'
p683
I1
sS'blocks.thisTrialN'
p684
I1
sg33
g12
sg48
V 
sg511
Vi
sg512
Ve
sg34
g35
sg36
V
sg57
g58
sg61
g62
sS'trials.thisIndex'
p685
g29
(g93
S'\x01\x00\x00\x00'
tRp686
sg515
g530
sS'blocks.thisIndex'
p687
g518
sS'trials.thisRepN'
p688
I1
sg26
V
sg50
g104
sg520
V 
sg20
F0.049702882766723633
sS'trials.thisTrialN'
p689
I5
sg17
F0.050313949584960938
sS'blocks.thisRepN'
p690
I0
sg25
V
sg59
g105
sa(dp691
g16
I0
sg28
g32
sg27
V1
sg503
Vi
sg15
S'e'
sg19
I0
sg24
V2
sg504
g560
sS'trials.thisN'
p692
I16
sg18
S'i'
sg507
I1
sg52
I2
sg53
V 
sg508
Ve
sg55
V 
sS'blocks.thisN'
p693
I1
sS'blocks.thisTrialN'
p694
I1
sg33
g12
sg48
V 
sg511
Vi
sg512
Ve
sg34
g35
sg36
V
sg57
g58
sg61
g62
sS'trials.thisIndex'
p695
g29
(g93
S'\x03\x00\x00\x00'
tRp696
sg515
g566
sS'blocks.thisIndex'
p697
g518
sS'trials.thisRepN'
p698
I1
sg26
V
sg50
g104
sg520
V 
sg20
F0.051803112030029297
sS'trials.thisTrialN'
p699
I6
sg17
F0.052053928375244141
sS'blocks.thisRepN'
p700
I0
sg25
V
sg59
g105
sa(dp701
g16
I0
sg28
g32
sg27
V1
sg503
Ve
sg15
S'i'
sg19
I0
sg24
V2
sg504
g608
sS'trials.thisN'
p702
I17
sg18
S'e'
sg507
I2
sg52
I2
sg53
V 
sg508
Vi
sg55
V 
sS'blocks.thisN'
p703
I1
sS'blocks.thisTrialN'
p704
I1
sg33
g12
sg48
V 
sg511
Ve
sg512
Vi
sg34
g35
sg36
V
sg57
g58
sg61
g62
sS'trials.thisIndex'
p705
g29
(g93
S'\x06\x00\x00\x00'
tRp706
sg515
g614
sS'blocks.thisIndex'
p707
g518
sS'trials.thisRepN'
p708
I1
sg26
V
sg50
g104
sg520
V 
sg20
F0.050575017929077148
sS'trials.thisTrialN'
p709
I7
sg17
F0.05112004280090332
sS'blocks.thisRepN'
p710
I0
sg25
V
sg59
g105
sa(dp711
g16
I0
sg28
g32
sg27
V1
sg503
Ve
sg15
S'i'
sg19
I0
sg24
V2
sg504
g596
sS'trials.thisN'
p712
I18
sg18
S'e'
sg507
I2
sg52
I2
sg53
V 
sg508
Vi
sg55
V 
sS'blocks.thisN'
p713
I1
sS'blocks.thisTrialN'
p714
I1
sg33
g12
sg48
V 
sg511
Ve
sg512
Vi
sg34
g35
sg36
V
sg57
g58
sg61
g62
sS'trials.thisIndex'
p715
g29
(g93
S'\x08\x00\x00\x00'
tRp716
sg515
g602
sS'blocks.thisIndex'
p717
g518
sS'trials.thisRepN'
p718
I1
sg26
V
sg50
g104
sg520
V 
sg20
F0.051223039627075195
sS'trials.thisTrialN'
p719
I8
sg17
F0.051517963409423828
sS'blocks.thisRepN'
p720
I0
sg25
V
sg59
g105
sa(dp721
g16
I0
sg28
g32
sg27
V1
sg503
Ve
sg15
S'i'
sg19
I0
sg24
V2
sg504
g505
sS'trials.thisN'
p722
I19
sg18
S'e'
sg507
I2
sg52
I2
sg53
V 
sg508
Vi
sg55
V 
sS'blocks.thisN'
p723
I1
sS'blocks.thisTrialN'
p724
I1
sg33
g12
sg48
V 
sg511
Ve
sg512
Vi
sg34
g35
sg36
V
sg57
g58
sg61
g62
sS'trials.thisIndex'
p725
g29
(g93
S'\t\x00\x00\x00'
tRp726
sg515
g516
sS'blocks.thisIndex'
p727
g518
sS'trials.thisRepN'
p728
I1
sg26
V
sg50
g104
sg520
V 
sg20
F0.051614046096801758
sS'trials.thisTrialN'
p729
I9
sg17
F0.052079200744628906
sS'blocks.thisRepN'
p730
I0
sg25
V
sg59
g105
sa(dp731
g16
I0
sg28
g32
sg27
V1
sg136
Vi
sg15
S'e'
sg19
I0
sg24
V2
sg140
g189
sS'trials.thisN'
p732
I0
sg18
S'i'
sg137
I1
sg52
I1
sg53
g54
sg139
Ve
sg55
g56
sS'blocks.thisN'
p733
I2
sS'blocks.thisTrialN'
p734
I2
sg33
g12
sg48
g49
sg135
Vi
sg138
Ve
sg34
g35
sg36
V
sg57
g58
sg61
g62
sS'trials.thisIndex'
p735
g29
(g93
S'\x00\x00\x00\x00'
tRp736
sg131
g188
sS'blocks.thisIndex'
p737
g122
sS'trials.thisRepN'
p738
I0
sg26
V
sg50
g51
sg133
V 
sg20
F0.035155057907104492
sS'trials.thisTrialN'
p739
I0
sg17
F0.035599946975708008
sS'blocks.thisRepN'
p740
I0
sg25
V
sg59
g60
sa(dp741
g16
I0
sg28
g32
sg27
V1
sg136
Ve
sg15
S'i'
sg19
I0
sg24
V2
sg140
g225
sS'trials.thisN'
p742
I1
sg18
S'e'
sg137
I2
sg52
I1
sg53
g54
sg139
Vi
sg55
g56
sS'blocks.thisN'
p743
I2
sS'blocks.thisTrialN'
p744
I2
sg33
g12
sg48
g49
sg135
Ve
sg138
Vi
sg34
g35
sg36
V
sg57
g58
sg61
g62
sS'trials.thisIndex'
p745
g29
(g93
S'\t\x00\x00\x00'
tRp746
sg131
g224
sS'blocks.thisIndex'
p747
g122
sS'trials.thisRepN'
p748
I0
sg26
V
sg50
g51
sg133
V 
sg20
F0.051967144012451172
sS'trials.thisTrialN'
p749
I1
sg17
F0.052351951599121094
sS'blocks.thisRepN'
p750
I0
sg25
V
sg59
g60
sa(dp751
g16
I0
sg28
g32
sg27
V1
sg136
Ve
sg15
S'i'
sg19
I0
sg24
V2
sg140
g141
sS'trials.thisN'
p752
I2
sg18
S'e'
sg137
I4
sg52
I1
sg53
g54
sg139
Vi
sg55
g56
sS'blocks.thisN'
p753
I2
sS'blocks.thisTrialN'
p754
I2
sg33
g12
sg48
g49
sg135
Ve
sg138
Vi
sg34
g35
sg36
V
sg57
g58
sg61
g62
sS'trials.thisIndex'
p755
g29
(g93
S'\x13\x00\x00\x00'
tRp756
sg131
g260
sS'blocks.thisIndex'
p757
g122
sS'trials.thisRepN'
p758
I0
sg26
V
sg50
g51
sg133
g261
sg20
F0.051381111145019531
sS'trials.thisTrialN'
p759
I2
sg17
F0.051801919937133789
sS'blocks.thisRepN'
p760
I0
sg25
V
sg59
g60
sa(dp761
g16
I0
sg28
g32
sg27
V1
sg136
Ve
sg15
S'i'
sg19
I0
sg24
V2
sg140
g213
sS'trials.thisN'
p762
I3
sg18
S'e'
sg137
I2
sg52
I1
sg53
g54
sg139
Vi
sg55
g56
sS'blocks.thisN'
p763
I2
sS'blocks.thisTrialN'
p764
I2
sg33
g12
sg48
g49
sg135
Ve
sg138
Vi
sg34
g35
sg36
V
sg57
g58
sg61
g62
sS'trials.thisIndex'
p765
g29
(g93
S'\x06\x00\x00\x00'
tRp766
sg131
g212
sS'blocks.thisIndex'
p767
g122
sS'trials.thisRepN'
p768
I0
sg26
V
sg50
g51
sg133
V 
sg20
F0.053532123565673828
sS'trials.thisTrialN'
p769
I3
sg17
F0.053707122802734375
sS'blocks.thisRepN'
p770
I0
sg25
V
sg59
g60
sa(dp771
g16
I0
sg28
g32
sg27
V1
sg136
Vi
sg15
S'e'
sg19
I0
sg24
V2
sg140
g141
sS'trials.thisN'
p772
I4
sg18
S'i'
sg137
I3
sg52
I1
sg53
g54
sg139
Ve
sg55
g56
sS'blocks.thisN'
p773
I2
sS'blocks.thisTrialN'
p774
I2
sg33
g12
sg48
g49
sg135
Vi
sg138
Ve
sg34
g35
sg36
V
sg57
g58
sg61
g62
sS'trials.thisIndex'
p775
g29
(g93
S'\x0c\x00\x00\x00'
tRp776
sg131
g236
sS'blocks.thisIndex'
p777
g122
sS'trials.thisRepN'
p778
I0
sg26
V
sg50
g51
sg133
g237
sg20
F0.049877166748046875
sS'trials.thisTrialN'
p779
I4
sg17
F0.050187110900878906
sS'blocks.thisRepN'
p780
I0
sg25
V
sg59
g60
sa(dp781
g16
I0
sg28
g32
sg27
V1
sg136
Ve
sg15
S'i'
sg19
I0
sg24
V2
sg140
g221
sS'trials.thisN'
p782
I5
sg18
S'e'
sg137
I2
sg52
I1
sg53
g54
sg139
Vi
sg55
g56
sS'blocks.thisN'
p783
I2
sS'blocks.thisTrialN'
p784
I2
sg33
g12
sg48
g49
sg135
Ve
sg138
Vi
sg34
g35
sg36
V
sg57
g58
sg61
g62
sS'trials.thisIndex'
p785
g29
(g93
S'\x08\x00\x00\x00'
tRp786
sg131
g220
sS'blocks.thisIndex'
p787
g122
sS'trials.thisRepN'
p788
I0
sg26
V
sg50
g51
sg133
V 
sg20
F0.049564123153686523
sS'trials.thisTrialN'
p789
I5
sg17
F0.050106048583984375
sS'blocks.thisRepN'
p790
I0
sg25
V
sg59
g60
sa(dp791
g16
I0
sg28
g32
sg27
V1
sg136
Vi
sg15
S'e'
sg19
I0
sg24
V2
sg140
g141
sS'trials.thisN'
p792
I6
sg18
S'i'
sg137
I3
sg52
I1
sg53
g54
sg139
Ve
sg55
g56
sS'blocks.thisN'
p793
I2
sS'blocks.thisTrialN'
p794
I2
sg33
g12
sg48
g49
sg135
Vi
sg138
Ve
sg34
g35
sg36
V
sg57
g58
sg61
g62
sS'trials.thisIndex'
p795
g29
(g93
S'\n\x00\x00\x00'
tRp796
sg131
g228
sS'blocks.thisIndex'
p797
g122
sS'trials.thisRepN'
p798
I0
sg26
V
sg50
g51
sg133
g229
sg20
F0.049692869186401367
sS'trials.thisTrialN'
p799
I6
sg17
F0.050147056579589844
sS'blocks.thisRepN'
p800
I0
sg25
V
sg59
g60
sa(dp801
g16
I0
sg28
g32
sg27
V1
sg136
Vi
sg15
S'e'
sg19
I0
sg24
V2
sg140
g201
sS'trials.thisN'
p802
I7
sg33
g12
sg137
I1
sg52
I1
sg53
g54
sg139
Ve
sg55
g56
sS'blocks.thisN'
p803
I2
sS'blocks.thisTrialN'
p804
I2
sg48
g49
sg135
Vi
sg138
Ve
sg34
g35
sg36
V
sg57
g58
sg61
g62
sS'trials.thisIndex'
p805
g29
(g93
S'\x03\x00\x00\x00'
tRp806
sg131
g200
sS'blocks.thisIndex'
p807
g122
sS'trials.thisRepN'
p808
I0
sg26
V
sg50
g51
sg133
V 
sg18
NsS'trials.thisTrialN'
p809
I7
sg17
F2.2273590564727783
sS'blocks.thisRepN'
p810
I0
sg25
V
sg59
g60
sasS'loops'
p811
(lp812
g40
ag1
(g39
g3
NtRp813
(dp814
g42
V<PsychoPy2experiment version="1.82.01" encoding="utf-8">\u000a  <Settings>\u000a    <Param name="Show mouse" val="False" valType="bool" updates="None"/>\u000a    <Param name="Data filename" val="'data/%s_%s_%s' %(expInfo['participant'], expName, expInfo['date'])" valType="code" updates="None"/>\u000a    <Param name="Monitor" val="testMonitor" valType="str" updates="None"/>\u000a    <Param name="Enable Escape" val="True" valType="bool" updates="None"/>\u000a    <Param name="color" val="black" valType="str" updates="None"/>\u000a    <Param name="Window size (pixels)" val="[1366, 768]" valType="code" updates="None"/>\u000a    <Param name="Full-screen window" val="True" valType="bool" updates="None"/>\u000a    <Param name="colorSpace" val="rgb" valType="str" updates="None"/>\u000a    <Param name="Experiment info" val="{u'gender': u'', u'age': u'', u'participant': u'', u'block order': u'1', u'group': u''}" valType="code" updates="None"/>\u000a    <Param name="Save csv file" val="False" valType="bool" updates="None"/>\u000a    <Param name="Show info dlg" val="True" valType="bool" updates="None"/>\u000a    <Param name="Save wide csv file" val="True" valType="bool" updates="None"/>\u000a    <Param name="Save psydat file" val="True" valType="bool" updates="None"/>\u000a    <Param name="expName" val="IAT" valType="str" updates="None"/>\u000a    <Param name="logging level" val="error" valType="code" updates="None"/>\u000a    <Param name="blendMode" val="avg" valType="str" updates="None"/>\u000a    <Param name="Save excel file" val="False" valType="bool" updates="None"/>\u000a    <Param name="Units" val="use prefs" valType="str" updates="None"/>\u000a    <Param name="Save log file" val="False" valType="bool" updates="None"/>\u000a    <Param name="Screen" val="1" valType="num" updates="None"/>\u000a  </Settings>\u000a  <Routines>\u000a    <Routine name="trial">\u000a      <ImageComponent name="stimulusImage">\u000a        <Param name="opacity" val="1" valType="code" updates="constant"/>\u000a        <Param name="flipVert" val="False" valType="bool" updates="constant"/>\u000a        <Param name="colorSpace" val="rgb" valType="str" updates="constant"/>\u000a        <Param name="name" val="stimulusImage" valType="code" updates="None"/>\u000a        <Param name="color" val="$[1,1,1]" valType="str" updates="constant"/>\u000a        <Param name="stopVal" val="" valType="code" updates="constant"/>\u000a        <Param name="durationEstim" val="" valType="code" updates="None"/>\u000a        <Param name="mask" val="None" valType="str" updates="constant"/>\u000a        <Param name="pos" val="[0, 0]" valType="code" updates="constant"/>\u000a        <Param name="interpolate" val="linear" valType="str" updates="constant"/>\u000a        <Param name="startEstim" val="" valType="code" updates="None"/>\u000a        <Param name="units" val="from exp settings" valType="str" updates="None"/>\u000a        <Param name="texture resolution" val="128" valType="code" updates="constant"/>\u000a        <Param name="startType" val="time (s)" valType="str" updates="None"/>\u000a        <Param name="ori" val="0" valType="code" updates="constant"/>\u000a        <Param name="stopType" val="duration (s)" valType="str" updates="None"/>\u000a        <Param name="startVal" val="0.3" valType="code" updates="None"/>\u000a        <Param name="flipHoriz" val="False" valType="bool" updates="constant"/>\u000a        <Param name="image" val="$imageStimulus" valType="str" updates="set every repeat"/>\u000a        <Param name="size" val="[0.5, 0.5]" valType="code" updates="constant"/>\u000a      </ImageComponent>\u000a      <TextComponent name="stimulusBox">\u000a        <Param name="opacity" val="1" valType="code" updates="constant"/>\u000a        <Param name="colorSpace" val="rgb" valType="str" updates="constant"/>\u000a        <Param name="name" val="stimulusBox" valType="code" updates="None"/>\u000a        <Param name="color" val="$stimulusColour" valType="str" updates="set every repeat"/>\u000a        <Param name="wrapWidth" val="" valType="code" updates="constant"/>\u000a        <Param name="stopVal" val="" valType="code" updates="constant"/>\u000a        <Param name="durationEstim" val="" valType="code" updates="None"/>\u000a        <Param name="pos" val="[0, 0]" valType="code" updates="constant"/>\u000a        <Param name="flip" val="" valType="str" updates="constant"/>\u000a        <Param name="startEstim" val="" valType="code" updates="None"/>\u000a        <Param name="units" val="from exp settings" valType="str" updates="None"/>\u000a        <Param name="text" val="$stimulus" valType="str" updates="set every repeat"/>\u000a        <Param name="startType" val="time (s)" valType="str" updates="None"/>\u000a        <Param name="ori" val="0" valType="code" updates="constant"/>\u000a        <Param name="stopType" val="duration (s)" valType="str" updates="None"/>\u000a        <Param name="startVal" val="0.3" valType="code" updates="None"/>\u000a        <Param name="font" val="Arial" valType="str" updates="constant"/>\u000a        <Param name="letterHeight" val="0.1" valType="code" updates="constant"/>\u000a      </TextComponent>\u000a      <KeyboardComponent name="requiredResponse">\u000a        <Param name="correctAns" val="$requiredResponse" valType="str" updates="constant"/>\u000a        <Param name="storeCorrect" val="True" valType="bool" updates="constant"/>\u000a        <Param name="name" val="requiredResponse" valType="code" updates="None"/>\u000a        <Param name="stopVal" val="" valType="code" updates="constant"/>\u000a        <Param name="durationEstim" val="" valType="code" updates="None"/>\u000a        <Param name="forceEndRoutine" val="True" valType="bool" updates="constant"/>\u000a        <Param name="startEstim" val="" valType="code" updates="None"/>\u000a        <Param name="discard previous" val="True" valType="bool" updates="constant"/>\u000a        <Param name="startType" val="time (s)" valType="str" updates="None"/>\u000a        <Param name="allowedKeys" val="requiredAllowed" valType="code" updates="set every repeat"/>\u000a        <Param name="stopType" val="duration (s)" valType="str" updates="None"/>\u000a        <Param name="startVal" val="0.3" valType="code" updates="None"/>\u000a        <Param name="store" val="first key" valType="str" updates="constant"/>\u000a      </KeyboardComponent>\u000a      <KeyboardComponent name="feedbackResponse">\u000a        <Param name="correctAns" val="$feedbackResponse" valType="str" updates="constant"/>\u000a        <Param name="storeCorrect" val="True" valType="bool" updates="constant"/>\u000a        <Param name="name" val="feedbackResponse" valType="code" updates="None"/>\u000a        <Param name="stopVal" val="" valType="code" updates="constant"/>\u000a        <Param name="durationEstim" val="" valType="code" updates="None"/>\u000a        <Param name="forceEndRoutine" val="False" valType="bool" updates="constant"/>\u000a        <Param name="startEstim" val="" valType="code" updates="None"/>\u000a        <Param name="discard previous" val="True" valType="bool" updates="constant"/>\u000a        <Param name="startType" val="time (s)" valType="str" updates="None"/>\u000a        <Param name="allowedKeys" val="feedbackAllowed" valType="code" updates="set every repeat"/>\u000a        <Param name="stopType" val="duration (s)" valType="str" updates="None"/>\u000a        <Param name="startVal" val="0.3" valType="code" updates="None"/>\u000a        <Param name="store" val="first key" valType="str" updates="constant"/>\u000a      </KeyboardComponent>\u000a      <CodeComponent name="code">\u000a        <Param name="Begin Experiment" val="msg1=&quot;&quot;&#10;&#10;order = int(expInfo['block order'])&#10;&#10;if order == 1:&#10;    taskFile = &quot;blockOrderA.xlsx&quot;&#10;elif order == 2:&#10;    taskFile = &quot;blockOrderB.xlsx&quot;&#10;else:&#10;    print &quot;****UNRECOGNISED ORDER CODE - please use 1 or 2 only****&quot;" valType="extendedCode" updates="constant"/>\u000a        <Param name="name" val="code" valType="code" updates="None"/>\u000a        <Param name="Each Frame" val="if len(feedbackResponse.keys)&lt;1:&#10;    msg1=&quot;&quot;&#10;else:&#10;    msg1=&quot;X&quot;" valType="extendedCode" updates="constant"/>\u000a        <Param name="Begin Routine" val="" valType="extendedCode" updates="constant"/>\u000a        <Param name="End Routine" val="" valType="extendedCode" updates="constant"/>\u000a        <Param name="End Experiment" val="" valType="extendedCode" updates="constant"/>\u000a      </CodeComponent>\u000a      <TextComponent name="accuracyFeedback">\u000a        <Param name="opacity" val="1" valType="code" updates="constant"/>\u000a        <Param name="colorSpace" val="rgb" valType="str" updates="constant"/>\u000a        <Param name="name" val="accuracyFeedback" valType="code" updates="None"/>\u000a        <Param name="color" val="red" valType="str" updates="constant"/>\u000a        <Param name="wrapWidth" val="" valType="code" updates="constant"/>\u000a        <Param name="stopVal" val="" valType="code" updates="constant"/>\u000a        <Param name="durationEstim" val="" valType="code" updates="None"/>\u000a        <Param name="pos" val="[0, -.5]" valType="code" updates="constant"/>\u000a        <Param name="flip" val="" valType="str" updates="constant"/>\u000a        <Param name="startEstim" val="" valType="code" updates="None"/>\u000a        <Param name="units" val="from exp settings" valType="str" updates="None"/>\u000a        <Param name="text" val="$msg1" valType="str" updates="set every frame"/>\u000a        <Param name="startType" val="time (s)" valType="str" updates="None"/>\u000a        <Param name="ori" val="0" valType="code" updates="constant"/>\u000a        <Param name="stopType" val="duration (s)" valType="str" updates="None"/>\u000a        <Param name="startVal" val="0.3" valType="code" updates="None"/>\u000a        <Param name="font" val="Arial" valType="str" updates="constant"/>\u000a        <Param name="letterHeight" val="0.2" valType="code" updates="constant"/>\u000a      </TextComponent>\u000a      <TextComponent name="target1box">\u000a        <Param name="opacity" val="1" valType="code" updates="constant"/>\u000a        <Param name="colorSpace" val="rgb" valType="str" updates="constant"/>\u000a        <Param name="name" val="target1box" valType="code" updates="None"/>\u000a        <Param name="color" val="white" valType="str" updates="constant"/>\u000a        <Param name="wrapWidth" val="" valType="code" updates="constant"/>\u000a        <Param name="stopVal" val="" valType="code" updates="constant"/>\u000a        <Param name="durationEstim" val="" valType="code" updates="None"/>\u000a        <Param name="pos" val="[-.6, .85]" valType="code" updates="constant"/>\u000a        <Param name="flip" val="" valType="str" updates="constant"/>\u000a        <Param name="startEstim" val="" valType="code" updates="None"/>\u000a        <Param name="units" val="from exp settings" valType="str" updates="None"/>\u000a        <Param name="text" val="$target1" valType="str" updates="set every repeat"/>\u000a        <Param name="startType" val="time (s)" valType="str" updates="None"/>\u000a        <Param name="ori" val="0" valType="code" updates="constant"/>\u000a        <Param name="stopType" val="duration (s)" valType="str" updates="None"/>\u000a        <Param name="startVal" val="0.0" valType="code" updates="None"/>\u000a        <Param name="font" val="Arial" valType="str" updates="constant"/>\u000a        <Param name="letterHeight" val="0.1" valType="code" updates="constant"/>\u000a      </TextComponent>\u000a      <TextComponent name="attribute1box">\u000a        <Param name="opacity" val="1" valType="code" updates="constant"/>\u000a        <Param name="colorSpace" val="rgb" valType="str" updates="constant"/>\u000a        <Param name="name" val="attribute1box" valType="code" updates="None"/>\u000a        <Param name="color" val="$[-1, 1, -1]" valType="str" updates="set every repeat"/>\u000a        <Param name="wrapWidth" val="" valType="code" updates="constant"/>\u000a        <Param name="stopVal" val="" valType="code" updates="constant"/>\u000a        <Param name="durationEstim" val="" valType="code" updates="None"/>\u000a        <Param name="pos" val="[-.6, 0.55]" valType="code" updates="constant"/>\u000a        <Param name="flip" val="" valType="str" updates="constant"/>\u000a        <Param name="startEstim" val="" valType="code" updates="None"/>\u000a        <Param name="units" val="from exp settings" valType="str" updates="None"/>\u000a        <Param name="text" val="$attribute1&#10;" valType="str" updates="set every repeat"/>\u000a        <Param name="startType" val="time (s)" valType="str" updates="None"/>\u000a        <Param name="ori" val="0" valType="code" updates="constant"/>\u000a        <Param name="stopType" val="duration (s)" valType="str" updates="None"/>\u000a        <Param name="startVal" val="0.0" valType="code" updates="None"/>\u000a        <Param name="font" val="Arial" valType="str" updates="constant"/>\u000a        <Param name="letterHeight" val="0.1" valType="code" updates="constant"/>\u000a      </TextComponent>\u000a      <TextComponent name="target2box">\u000a        <Param name="opacity" val="1" valType="code" updates="constant"/>\u000a        <Param name="colorSpace" val="rgb" valType="str" updates="constant"/>\u000a        <Param name="name" val="target2box" valType="code" updates="None"/>\u000a        <Param name="color" val="white" valType="str" updates="constant"/>\u000a        <Param name="wrapWidth" val="" valType="code" updates="constant"/>\u000a        <Param name="stopVal" val="" valType="code" updates="constant"/>\u000a        <Param name="durationEstim" val="" valType="code" updates="None"/>\u000a        <Param name="pos" val="[0.6, 0.85]" valType="code" updates="constant"/>\u000a        <Param name="flip" val="" valType="str" updates="constant"/>\u000a        <Param name="startEstim" val="" valType="code" updates="None"/>\u000a        <Param name="units" val="from exp settings" valType="str" updates="None"/>\u000a        <Param name="text" val="$target2" valType="str" updates="set every repeat"/>\u000a        <Param name="startType" val="time (s)" valType="str" updates="None"/>\u000a        <Param name="ori" val="0" valType="code" updates="constant"/>\u000a        <Param name="stopType" val="duration (s)" valType="str" updates="None"/>\u000a        <Param name="startVal" val="0.0" valType="code" updates="None"/>\u000a        <Param name="font" val="Arial" valType="str" updates="constant"/>\u000a        <Param name="letterHeight" val="0.1" valType="code" updates="constant"/>\u000a      </TextComponent>\u000a      <TextComponent name="attribute2box">\u000a        <Param name="opacity" val="1" valType="code" updates="constant"/>\u000a        <Param name="colorSpace" val="rgb" valType="str" updates="constant"/>\u000a        <Param name="name" val="attribute2box" valType="code" updates="None"/>\u000a        <Param name="color" val="$[-1, 1, -1]" valType="str" updates="constant"/>\u000a        <Param name="wrapWidth" val="" valType="code" updates="constant"/>\u000a        <Param name="stopVal" val="" valType="code" updates="constant"/>\u000a        <Param name="durationEstim" val="" valType="code" updates="None"/>\u000a        <Param name="pos" val="[0.6, 0.55]" valType="code" updates="constant"/>\u000a        <Param name="flip" val="" valType="str" updates="constant"/>\u000a        <Param name="startEstim" val="" valType="code" updates="None"/>\u000a        <Param name="units" val="from exp settings" valType="str" updates="None"/>\u000a        <Param name="text" val="$attribute2" valType="str" updates="set every repeat"/>\u000a        <Param name="startType" val="time (s)" valType="str" updates="None"/>\u000a        <Param name="ori" val="0" valType="code" updates="constant"/>\u000a        <Param name="stopType" val="duration (s)" valType="str" updates="None"/>\u000a        <Param name="startVal" val="0.0" valType="code" updates="None"/>\u000a        <Param name="font" val="Arial" valType="str" updates="constant"/>\u000a        <Param name="letterHeight" val="0.1" valType="code" updates="constant"/>\u000a      </TextComponent>\u000a      <TextComponent name="orLeftBox">\u000a        <Param name="opacity" val="1" valType="code" updates="constant"/>\u000a        <Param name="colorSpace" val="rgb" valType="str" updates="constant"/>\u000a        <Param name="name" val="orLeftBox" valType="code" updates="None"/>\u000a        <Param name="color" val="white" valType="str" updates="constant"/>\u000a        <Param name="wrapWidth" val="" valType="code" updates="constant"/>\u000a        <Param name="stopVal" val="" valType="code" updates="constant"/>\u000a        <Param name="durationEstim" val="" valType="code" updates="None"/>\u000a        <Param name="pos" val="[-.6, .7]" valType="code" updates="constant"/>\u000a        <Param name="flip" val="" valType="str" updates="constant"/>\u000a        <Param name="startEstim" val="" valType="code" updates="None"/>\u000a        <Param name="units" val="from exp settings" valType="str" updates="None"/>\u000a        <Param name="text" val="$orStimulus" valType="str" updates="set every repeat"/>\u000a        <Param name="startType" val="time (s)" valType="str" updates="None"/>\u000a        <Param name="ori" val="0" valType="code" updates="constant"/>\u000a        <Param name="stopType" val="duration (s)" valType="str" updates="None"/>\u000a        <Param name="startVal" val="0.0" valType="code" updates="None"/>\u000a        <Param name="font" val="Arial" valType="str" updates="constant"/>\u000a        <Param name="letterHeight" val="0.1" valType="code" updates="constant"/>\u000a      </TextComponent>\u000a      <TextComponent name="orRightBox">\u000a        <Param name="opacity" val="1" valType="code" updates="constant"/>\u000a        <Param name="colorSpace" val="rgb" valType="str" updates="constant"/>\u000a        <Param name="name" val="orRightBox" valType="code" updates="None"/>\u000a        <Param name="color" val="white" valType="str" updates="constant"/>\u000a        <Param name="wrapWidth" val="" valType="code" updates="constant"/>\u000a        <Param name="stopVal" val="" valType="code" updates="constant"/>\u000a        <Param name="durationEstim" val="" valType="code" updates="None"/>\u000a        <Param name="pos" val="[.6, .7]" valType="code" updates="constant"/>\u000a        <Param name="flip" val="" valType="str" updates="constant"/>\u000a        <Param name="startEstim" val="" valType="code" updates="None"/>\u000a        <Param name="units" val="from exp settings" valType="str" updates="None"/>\u000a        <Param name="text" val="$orStimulus" valType="str" updates="set every repeat"/>\u000a        <Param name="startType" val="time (s)" valType="str" updates="None"/>\u000a        <Param name="ori" val="0" valType="code" updates="constant"/>\u000a        <Param name="stopType" val="duration (s)" valType="str" updates="None"/>\u000a        <Param name="startVal" val="0.0" valType="code" updates="None"/>\u000a        <Param name="font" val="Arial" valType="str" updates="constant"/>\u000a        <Param name="letterHeight" val="0.1" valType="code" updates="constant"/>\u000a      </TextComponent>\u000a    </Routine>\u000a    <Routine name="instructions">\u000a      <TextComponent name="instructionsBox">\u000a        <Param name="opacity" val="1" valType="code" updates="constant"/>\u000a        <Param name="colorSpace" val="rgb" valType="str" updates="constant"/>\u000a        <Param name="name" val="instructionsBox" valType="code" updates="None"/>\u000a        <Param name="color" val="white" valType="str" updates="constant"/>\u000a        <Param name="wrapWidth" val="" valType="code" updates="constant"/>\u000a        <Param name="stopVal" val="" valType="code" updates="constant"/>\u000a        <Param name="durationEstim" val="" valType="code" updates="None"/>\u000a        <Param name="pos" val="[0, -.15]" valType="code" updates="constant"/>\u000a        <Param name="flip" val="" valType="str" updates="constant"/>\u000a        <Param name="startEstim" val="" valType="code" updates="None"/>\u000a        <Param name="units" val="from exp settings" valType="str" updates="None"/>\u000a        <Param name="text" val="$instruction" valType="str" updates="set every repeat"/>\u000a        <Param name="startType" val="time (s)" valType="str" updates="None"/>\u000a        <Param name="ori" val="0" valType="code" updates="constant"/>\u000a        <Param name="stopType" val="duration (s)" valType="str" updates="None"/>\u000a        <Param name="startVal" val="0.3" valType="code" updates="None"/>\u000a        <Param name="font" val="Arial" valType="str" updates="constant"/>\u000a        <Param name="letterHeight" val="0.05" valType="code" updates="constant"/>\u000a      </TextComponent>\u000a      <KeyboardComponent name="responseContinue">\u000a        <Param name="correctAns" val="$requiredResponse" valType="str" updates="constant"/>\u000a        <Param name="storeCorrect" val="False" valType="bool" updates="constant"/>\u000a        <Param name="name" val="responseContinue" valType="code" updates="None"/>\u000a        <Param name="stopVal" val="" valType="code" updates="constant"/>\u000a        <Param name="durationEstim" val="" valType="code" updates="None"/>\u000a        <Param name="forceEndRoutine" val="True" valType="bool" updates="constant"/>\u000a        <Param name="startEstim" val="" valType="code" updates="None"/>\u000a        <Param name="discard previous" val="False" valType="bool" updates="constant"/>\u000a        <Param name="startType" val="time (s)" valType="str" updates="None"/>\u000a        <Param name="allowedKeys" val="'space'" valType="code" updates="constant"/>\u000a        <Param name="stopType" val="duration (s)" valType="str" updates="None"/>\u000a        <Param name="startVal" val="0.3" valType="code" updates="None"/>\u000a        <Param name="store" val="nothing" valType="str" updates="constant"/>\u000a      </KeyboardComponent>\u000a      <TextComponent name="target1box_inst">\u000a        <Param name="opacity" val="1" valType="code" updates="constant"/>\u000a        <Param name="colorSpace" val="rgb" valType="str" updates="constant"/>\u000a        <Param name="name" val="target1box_inst" valType="code" updates="None"/>\u000a        <Param name="color" val="white" valType="str" updates="constant"/>\u000a        <Param name="wrapWidth" val="" valType="code" updates="constant"/>\u000a        <Param name="stopVal" val="" valType="code" updates="constant"/>\u000a        <Param name="durationEstim" val="" valType="code" updates="None"/>\u000a        <Param name="pos" val="[-.6, .85]" valType="code" updates="constant"/>\u000a        <Param name="flip" val="" valType="str" updates="constant"/>\u000a        <Param name="startEstim" val="" valType="code" updates="None"/>\u000a        <Param name="units" val="from exp settings" valType="str" updates="None"/>\u000a        <Param name="text" val="$target1" valType="str" updates="set every repeat"/>\u000a        <Param name="startType" val="time (s)" valType="str" updates="None"/>\u000a        <Param name="ori" val="0" valType="code" updates="constant"/>\u000a        <Param name="stopType" val="duration (s)" valType="str" updates="None"/>\u000a        <Param name="startVal" val="0.0" valType="code" updates="None"/>\u000a        <Param name="font" val="Arial" valType="str" updates="constant"/>\u000a        <Param name="letterHeight" val="0.1" valType="code" updates="constant"/>\u000a      </TextComponent>\u000a      <TextComponent name="target2box_inst">\u000a        <Param name="opacity" val="1" valType="code" updates="constant"/>\u000a        <Param name="colorSpace" val="rgb" valType="str" updates="constant"/>\u000a        <Param name="name" val="target2box_inst" valType="code" updates="None"/>\u000a        <Param name="color" val="white" valType="str" updates="constant"/>\u000a        <Param name="wrapWidth" val="" valType="code" updates="constant"/>\u000a        <Param name="stopVal" val="" valType="code" updates="constant"/>\u000a        <Param name="durationEstim" val="" valType="code" updates="None"/>\u000a        <Param name="pos" val="[0.6, 0.85]" valType="code" updates="constant"/>\u000a        <Param name="flip" val="" valType="str" updates="constant"/>\u000a        <Param name="startEstim" val="" valType="code" updates="None"/>\u000a        <Param name="units" val="from exp settings" valType="str" updates="None"/>\u000a        <Param name="text" val="$target2" valType="str" updates="set every repeat"/>\u000a        <Param name="startType" val="time (s)" valType="str" updates="None"/>\u000a        <Param name="ori" val="0" valType="code" updates="constant"/>\u000a        <Param name="stopType" val="duration (s)" valType="str" updates="None"/>\u000a        <Param name="startVal" val="0.0" valType="code" updates="None"/>\u000a        <Param name="font" val="Arial" valType="str" updates="constant"/>\u000a        <Param name="letterHeight" val="0.1" valType="code" updates="constant"/>\u000a      </TextComponent>\u000a      <TextComponent name="attribute1box_inst">\u000a        <Param name="opacity" val="1" valType="code" updates="constant"/>\u000a        <Param name="colorSpace" val="rgb" valType="str" updates="constant"/>\u000a        <Param name="name" val="attribute1box_inst" valType="code" updates="None"/>\u000a        <Param name="color" val="$[-1, 1, -1]" valType="str" updates="constant"/>\u000a        <Param name="wrapWidth" val="" valType="code" updates="constant"/>\u000a        <Param name="stopVal" val="" valType="code" updates="constant"/>\u000a        <Param name="durationEstim" val="" valType="code" updates="None"/>\u000a        <Param name="pos" val="[-.6, 0.55]" valType="code" updates="constant"/>\u000a        <Param name="flip" val="" valType="str" updates="constant"/>\u000a        <Param name="startEstim" val="" valType="code" updates="None"/>\u000a        <Param name="units" val="from exp settings" valType="str" updates="None"/>\u000a        <Param name="text" val="$attribute1" valType="str" updates="set every repeat"/>\u000a        <Param name="startType" val="time (s)" valType="str" updates="None"/>\u000a        <Param name="ori" val="0" valType="code" updates="constant"/>\u000a        <Param name="stopType" val="duration (s)" valType="str" updates="None"/>\u000a        <Param name="startVal" val="0.0" valType="code" updates="None"/>\u000a        <Param name="font" val="Arial" valType="str" updates="constant"/>\u000a        <Param name="letterHeight" val="0.1" valType="code" updates="constant"/>\u000a      </TextComponent>\u000a      <TextComponent name="attribute2box_inst">\u000a        <Param name="opacity" val="1" valType="code" updates="constant"/>\u000a        <Param name="colorSpace" val="rgb" valType="str" updates="constant"/>\u000a        <Param name="name" val="attribute2box_inst" valType="code" updates="None"/>\u000a        <Param name="color" val="$[-1, 1, -1]" valType="str" updates="constant"/>\u000a        <Param name="wrapWidth" val="" valType="code" updates="constant"/>\u000a        <Param name="stopVal" val="" valType="code" updates="constant"/>\u000a        <Param name="durationEstim" val="" valType="code" updates="None"/>\u000a        <Param name="pos" val="[0.6, 0.55]" valType="code" updates="constant"/>\u000a        <Param name="flip" val="" valType="str" updates="constant"/>\u000a        <Param name="startEstim" val="" valType="code" updates="None"/>\u000a        <Param name="units" val="from exp settings" valType="str" updates="None"/>\u000a        <Param name="text" val="$attribute2" valType="str" updates="set every repeat"/>\u000a        <Param name="startType" val="time (s)" valType="str" updates="None"/>\u000a        <Param name="ori" val="0" valType="code" updates="constant"/>\u000a        <Param name="stopType" val="duration (s)" valType="str" updates="None"/>\u000a        <Param name="startVal" val="0.0" valType="code" updates="None"/>\u000a        <Param name="font" val="Arial" valType="str" updates="constant"/>\u000a        <Param name="letterHeight" val="0.1" valType="code" updates="constant"/>\u000a      </TextComponent>\u000a      <TextComponent name="orLeftBox_inst">\u000a        <Param name="opacity" val="1" valType="code" updates="constant"/>\u000a        <Param name="colorSpace" val="rgb" valType="str" updates="constant"/>\u000a        <Param name="name" val="orLeftBox_inst" valType="code" updates="None"/>\u000a        <Param name="color" val="white" valType="str" updates="constant"/>\u000a        <Param name="wrapWidth" val="" valType="code" updates="constant"/>\u000a        <Param name="stopVal" val="" valType="code" updates="constant"/>\u000a        <Param name="durationEstim" val="" valType="code" updates="None"/>\u000a        <Param name="pos" val="[-.6, .7]" valType="code" updates="constant"/>\u000a        <Param name="flip" val="" valType="str" updates="constant"/>\u000a        <Param name="startEstim" val="" valType="code" updates="None"/>\u000a        <Param name="units" val="from exp settings" valType="str" updates="None"/>\u000a        <Param name="text" val="$orStimulus" valType="str" updates="set every repeat"/>\u000a        <Param name="startType" val="time (s)" valType="str" updates="None"/>\u000a        <Param name="ori" val="0" valType="code" updates="constant"/>\u000a        <Param name="stopType" val="duration (s)" valType="str" updates="None"/>\u000a        <Param name="startVal" val="0.0" valType="code" updates="None"/>\u000a        <Param name="font" val="Arial" valType="str" updates="constant"/>\u000a        <Param name="letterHeight" val="0.1" valType="code" updates="constant"/>\u000a      </TextComponent>\u000a      <TextComponent name="orRightBox_inst">\u000a        <Param name="opacity" val="1" valType="code" updates="constant"/>\u000a        <Param name="colorSpace" val="rgb" valType="str" updates="constant"/>\u000a        <Param name="name" val="orRightBox_inst" valType="code" updates="None"/>\u000a        <Param name="color" val="white" valType="str" updates="constant"/>\u000a        <Param name="wrapWidth" val="" valType="code" updates="constant"/>\u000a        <Param name="stopVal" val="" valType="code" updates="constant"/>\u000a        <Param name="durationEstim" val="" valType="code" updates="None"/>\u000a        <Param name="pos" val="[.6, .7]" valType="code" updates="constant"/>\u000a        <Param name="flip" val="" valType="str" updates="constant"/>\u000a        <Param name="startEstim" val="" valType="code" updates="None"/>\u000a        <Param name="units" val="from exp settings" valType="str" updates="None"/>\u000a        <Param name="text" val="$orStimulus" valType="str" updates="set every repeat"/>\u000a        <Param name="startType" val="time (s)" valType="str" updates="None"/>\u000a        <Param name="ori" val="0" valType="code" updates="constant"/>\u000a        <Param name="stopType" val="duration (s)" valType="str" updates="None"/>\u000a        <Param name="startVal" val="0.0" valType="code" updates="None"/>\u000a        <Param name="font" val="Arial" valType="str" updates="constant"/>\u000a        <Param name="letterHeight" val="0.1" valType="code" updates="constant"/>\u000a      </TextComponent>\u000a    </Routine>\u000a  </Routines>\u000a  <Flow>\u000a    <LoopInitiator loopType="TrialHandler" name="blocks">\u000a      <Param name="conditionsFile" val="$taskFile" valType="str" updates="None"/>\u000a      <Param name="name" val="blocks" valType="code" updates="None"/>\u000a      <Param name="isTrials" val="False" valType="bool" updates="None"/>\u000a      <Param name="random seed" val="" valType="code" updates="None"/>\u000a      <Param name="loopType" val="sequential" valType="str" updates="None"/>\u000a      <Param name="nReps" val="1" valType="code" updates="None"/>\u000a      <Param name="endPoints" val="[0, 1]" valType="num" updates="None"/>\u000a      <Param name="conditions" val="None" valType="str" updates="None"/>\u000a      <Param name="Selected rows" val="" valType="str" updates="None"/>\u000a    </LoopInitiator>\u000a    <Routine name="instructions"/>\u000a    <LoopInitiator loopType="TrialHandler" name="trials">\u000a      <Param name="conditionsFile" val="$block" valType="str" updates="None"/>\u000a      <Param name="name" val="trials" valType="code" updates="None"/>\u000a      <Param name="isTrials" val="True" valType="bool" updates="None"/>\u000a      <Param name="random seed" val="" valType="code" updates="None"/>\u000a      <Param name="loopType" val="random" valType="str" updates="None"/>\u000a      <Param name="nReps" val="$nBlockRepeats" valType="code" updates="None"/>\u000a      <Param name="endPoints" val="[0, 1]" valType="num" updates="None"/>\u000a      <Param name="conditions" val="None" valType="str" updates="None"/>\u000a      <Param name="Selected rows" val="" valType="str" updates="None"/>\u000a    </LoopInitiator>\u000a    <Routine name="trial"/>\u000a    <LoopTerminator name="trials"/>\u000a    <LoopTerminator name="blocks"/>\u000a  </Flow>\u000a</PsychoPy2experiment>\u000a
p815
sg44
(lp816
sg64
I206318320
sg11
g83
sg6
g7
sg66
I2
sg21
I01
sg22
g23
sg67
g1
(g68
g46
(dp817
g16
g71
(g72
g73
g74
S'b'
tRp818
(I1
(I10
I2
tg76
I00
S'\x00\x00\x00\x00\x00\x00\x00\x00\x00\x00\x00\x00\x00\x00\x00\x00\x00\x00\x00\x00\x00\x00\x00\x00\x00\x00\x00\x00\x00\x00\x00\x00\x00\x00\x00\x00\x00\x00\x00\x00\x00\x00\x00\x00\x00\x00\x00\x00\x00\x00\x00\x00\x00\x00\x00\x00\x00\x00\x00\x00\x00\x00\x00\x00\x00\x00\x00\x00\x00\x00\x00\x00\x00\x00\x00\x00\x00\x00\x00\x00'
S'\x00\x00\x00\x00\x00\x00\x00\x00\x00\x00\x00\x00\x00\x00\x00\x00\x00\x00\x00\x00'
Ntbsg18
g91
(g73
(I0
tS'b'
tRp819
(I1
(I10
I2
tg146
I00
(lp820
S'i'
aS'i'
aS'i'
aS'i'
aS'i'
aS'i'
aS'i'
aS'i'
aS'i'
aS'i'
aS'e'
aS'e'
aS'e'
aS'e'
aS'e'
aS'e'
aS'e'
aS'e'
aS'e'
aS'e'
atbsg70
g71
(g72
g73
g74
S'b'
tRp821
(I1
(I10
I2
tg76
I00
S'\x00\x00\x80?\x00\x00\x80?\x00\x00\x80?\x00\x00\x80?\x00\x00\x80?\x00\x00\x80?\x00\x00\x80?\x00\x00\x80?\x00\x00\x80?\x00\x00\x80?\x00\x00\x80?\x00\x00\x80?\x00\x00\x80?\x00\x00\x80?\x00\x00\x80?\x00\x00\x80?\x00\x00\x80?\x00\x00\x80?\x00\x00\x80?\x00\x00\x80?'
S'\x00\x00\x00\x00\x00\x00\x00\x00\x00\x00\x00\x00\x00\x00\x00\x00\x00\x00\x00\x00'
Ntbsg20
g71
(g72
g73
g74
S'b'
tRp822
(I1
(I10
I2
tg76
I00
S'@\x8dJ=\x80\x06L=\x800S=\x00\xc9P=\x00xJ=\xc08M=\xc0]\x0b=@\xe5Q=@\x8a\x0f=\x00|L=\xc0\xd5P=@7Q=@\xa5Q=\xc0\xebN=\xc0\x01X=\x80\xac\x11=\xc0\xe0L=\x80\xc6L=@\x92Q=@LV='
S'\x00\x00\x00\x00\x00\x00\x00\x00\x00\x00\x00\x00\x00\x00\x00\x00\x00\x00\x00\x00'
Ntbsg17
g71
(g72
g73
g74
S'b'
tRp823
(I1
(I10
I2
tg76
I00
S'\x00\xd4L=\x80\xa1N=\x00\x12T=@\x0eR=\xc0\xb6L=\x80\xa1M=\xc0x\r=@\xe8R=\x00^\x10=\x80\xcbM=@\x0eR=@\xbeR=\x80\x98R=\x80&P=\x005X=@\x95\x12=\x00\x01O=\xc0\xfcM=\x00\x9fR=@\x1dW='
S'\x00\x00\x00\x00\x00\x00\x00\x00\x00\x00\x00\x00\x00\x00\x00\x00\x00\x00\x00\x00'
Ntbsg19
g71
(g72
g73
g74
S'b'
tRp824
(I1
(I10
I2
tg76
I00
S'\x00\x00\x00\x00\x00\x00\x00\x00\x00\x00\x00\x00\x00\x00\x00\x00\x00\x00\x00\x00\x00\x00\x00\x00\x00\x00\x00\x00\x00\x00\x00\x00\x00\x00\x00\x00\x00\x00\x00\x00\x00\x00\x00\x00\x00\x00\x00\x00\x00\x00\x00\x00\x00\x00\x00\x00\x00\x00\x00\x00\x00\x00\x00\x00\x00\x00\x00\x00\x00\x00\x00\x00\x00\x00\x00\x00\x00\x00\x00\x00'
S'\x00\x00\x00\x00\x00\x00\x00\x00\x00\x00\x00\x00\x00\x00\x00\x00\x00\x00\x00\x00'
Ntbsg77
g71
(g72
g73
g74
S'b'
tRp825
(I1
(I10
I2
tg76
I00
S'\x00\x00\x10A\x00\x00\x90A\x00\x00\x80@\x00\x00 A\x00\x00\x80?\x00\x00pA\x00\x00\x00\x00\x00\x00PA\x00\x00@@\x00\x000A\x00\x00\xe0@\x00\x00`A\x00\x00\xa0@\x00\x00\x80A\x00\x00\x00A\x00\x00@A\x00\x00\x00@\x00\x00\x98A\x00\x00\xc0@\x00\x00\x88A'
S'\x00\x00\x00\x00\x00\x00\x00\x00\x00\x00\x00\x00\x00\x00\x00\x00\x00\x00\x00\x00'
Ntbsg15
g91
(g73
(I0
tS'b'
tRp826
(I1
(I10
I2
tg146
I00
(lp827
S'e'
aS'e'
aS'e'
aS'e'
aS'e'
aS'e'
aS'e'
aS'e'
aS'e'
aS'e'
aS'i'
aS'i'
aS'i'
aS'i'
aS'i'
aS'i'
aS'i'
aS'i'
aS'i'
aS'i'
atbstRp828
(dp829
g81
(dp830
g16
I01
sg70
I01
sg20
I01
sg18
I00
sg17
I01
sg19
I01
sg77
I01
sg15
I00
ssg83
g813
sg84
(lp831
g70
ag77
ag15
ag16
ag17
ag18
ag19
ag20
asg86
(lp832
I10
aI2
asbsg88
g184
sg90
g91
(g73
(I0
tS'b'
tRp833
(I1
(I10
I2
tg93
I01
S'\x03\x00\x00\x00\x02\x00\x00\x00\x08\x00\x00\x00\x04\x00\x00\x00\x01\x00\x00\x00\x06\x00\x00\x00\t\x00\x00\x00\x05\x00\x00\x00\x07\x00\x00\x00\x00\x00\x00\x00\x01\x00\x00\x00\x04\x00\x00\x00\x07\x00\x00\x00\x03\x00\x00\x00\x05\x00\x00\x00\x02\x00\x00\x00\x06\x00\x00\x00\t\x00\x00\x00\x00\x00\x00\x00\x08\x00\x00\x00'
tbsg94
I01
sg95
I2
sg96
I-1
sg97
(lp834
g1
(g45
g46
(dp835
g270
g396
sg271
g399
sg272
Vi
sg273
Vi
sg274
I3
sg275
Ve
sg276
Ve
sg277
g281
stRp836
ag1
(g45
g46
(dp837
g270
g336
sg271
g339
sg272
Vi
sg273
Vi
sg274
I3
sg275
Ve
sg276
Ve
sg277
g281
stRp838
ag1
(g45
g46
(dp839
g270
g300
sg271
g303
sg272
Vi
sg273
Vi
sg274
I3
sg275
Ve
sg276
Ve
sg277
g281
stRp840
ag1
(g45
g46
(dp841
g270
g287
sg271
g291
sg272
Vi
sg273
Vi
sg274
I3
sg275
Ve
sg276
Ve
sg277
g281
stRp842
ag1
(g45
g46
(dp843
g270
g324
sg271
g327
sg272
Vi
sg273
Vi
sg274
I3
sg275
Ve
sg276
Ve
sg277
g281
stRp844
ag1
(g45
g46
(dp845
g270
g372
sg271
g375
sg272
Ve
sg273
Ve
sg274
I4
sg275
Vi
sg276
Vi
sg277
g281
stRp846
ag1
(g45
g46
(dp847
g270
g348
sg271
g351
sg272
Ve
sg273
Ve
sg274
I4
sg275
Vi
sg276
Vi
sg277
g281
stRp848
ag1
(g45
g46
(dp849
g270
g384
sg271
g387
sg272
Ve
sg273
Ve
sg274
I4
sg275
Vi
sg276
Vi
sg277
g281
stRp850
ag1
(g45
g46
(dp851
g270
g312
sg271
g315
sg272
Ve
sg273
Ve
sg274
I4
sg275
Vi
sg276
Vi
sg277
g281
stRp852
ag1
(g45
g46
(dp853
g270
g360
sg271
g363
sg272
Ve
sg273
Ve
sg274
I4
sg275
Vi
sg276
Vi
sg277
g281
stRp854
asg120
Nsg121
g497
sg123
I20
sg124
I0
sg125
I20
sg126
I01
sbag1
(g39
g3
NtRp855
(dp856
g42
V<PsychoPy2experiment version="1.82.01" encoding="utf-8">\u000a  <Settings>\u000a    <Param name="Show mouse" val="False" valType="bool" updates="None"/>\u000a    <Param name="Data filename" val="'data/%s_%s_%s' %(expInfo['participant'], expName, expInfo['date'])" valType="code" updates="None"/>\u000a    <Param name="Monitor" val="testMonitor" valType="str" updates="None"/>\u000a    <Param name="Enable Escape" val="True" valType="bool" updates="None"/>\u000a    <Param name="color" val="black" valType="str" updates="None"/>\u000a    <Param name="Window size (pixels)" val="[1366, 768]" valType="code" updates="None"/>\u000a    <Param name="Full-screen window" val="True" valType="bool" updates="None"/>\u000a    <Param name="colorSpace" val="rgb" valType="str" updates="None"/>\u000a    <Param name="Experiment info" val="{u'gender': u'', u'age': u'', u'participant': u'', u'block order': u'1', u'group': u''}" valType="code" updates="None"/>\u000a    <Param name="Save csv file" val="False" valType="bool" updates="None"/>\u000a    <Param name="Show info dlg" val="True" valType="bool" updates="None"/>\u000a    <Param name="Save wide csv file" val="True" valType="bool" updates="None"/>\u000a    <Param name="Save psydat file" val="True" valType="bool" updates="None"/>\u000a    <Param name="expName" val="IAT" valType="str" updates="None"/>\u000a    <Param name="logging level" val="error" valType="code" updates="None"/>\u000a    <Param name="blendMode" val="avg" valType="str" updates="None"/>\u000a    <Param name="Save excel file" val="False" valType="bool" updates="None"/>\u000a    <Param name="Units" val="use prefs" valType="str" updates="None"/>\u000a    <Param name="Save log file" val="False" valType="bool" updates="None"/>\u000a    <Param name="Screen" val="1" valType="num" updates="None"/>\u000a  </Settings>\u000a  <Routines>\u000a    <Routine name="trial">\u000a      <ImageComponent name="stimulusImage">\u000a        <Param name="opacity" val="1" valType="code" updates="constant"/>\u000a        <Param name="flipVert" val="False" valType="bool" updates="constant"/>\u000a        <Param name="colorSpace" val="rgb" valType="str" updates="constant"/>\u000a        <Param name="name" val="stimulusImage" valType="code" updates="None"/>\u000a        <Param name="color" val="$[1,1,1]" valType="str" updates="constant"/>\u000a        <Param name="stopVal" val="" valType="code" updates="constant"/>\u000a        <Param name="durationEstim" val="" valType="code" updates="None"/>\u000a        <Param name="mask" val="None" valType="str" updates="constant"/>\u000a        <Param name="pos" val="[0, 0]" valType="code" updates="constant"/>\u000a        <Param name="interpolate" val="linear" valType="str" updates="constant"/>\u000a        <Param name="startEstim" val="" valType="code" updates="None"/>\u000a        <Param name="units" val="from exp settings" valType="str" updates="None"/>\u000a        <Param name="texture resolution" val="128" valType="code" updates="constant"/>\u000a        <Param name="startType" val="time (s)" valType="str" updates="None"/>\u000a        <Param name="ori" val="0" valType="code" updates="constant"/>\u000a        <Param name="stopType" val="duration (s)" valType="str" updates="None"/>\u000a        <Param name="startVal" val="0.3" valType="code" updates="None"/>\u000a        <Param name="flipHoriz" val="False" valType="bool" updates="constant"/>\u000a        <Param name="image" val="$imageStimulus" valType="str" updates="set every repeat"/>\u000a        <Param name="size" val="[0.5, 0.5]" valType="code" updates="constant"/>\u000a      </ImageComponent>\u000a      <TextComponent name="stimulusBox">\u000a        <Param name="opacity" val="1" valType="code" updates="constant"/>\u000a        <Param name="colorSpace" val="rgb" valType="str" updates="constant"/>\u000a        <Param name="name" val="stimulusBox" valType="code" updates="None"/>\u000a        <Param name="color" val="$stimulusColour" valType="str" updates="set every repeat"/>\u000a        <Param name="wrapWidth" val="" valType="code" updates="constant"/>\u000a        <Param name="stopVal" val="" valType="code" updates="constant"/>\u000a        <Param name="durationEstim" val="" valType="code" updates="None"/>\u000a        <Param name="pos" val="[0, 0]" valType="code" updates="constant"/>\u000a        <Param name="flip" val="" valType="str" updates="constant"/>\u000a        <Param name="startEstim" val="" valType="code" updates="None"/>\u000a        <Param name="units" val="from exp settings" valType="str" updates="None"/>\u000a        <Param name="text" val="$stimulus" valType="str" updates="set every repeat"/>\u000a        <Param name="startType" val="time (s)" valType="str" updates="None"/>\u000a        <Param name="ori" val="0" valType="code" updates="constant"/>\u000a        <Param name="stopType" val="duration (s)" valType="str" updates="None"/>\u000a        <Param name="startVal" val="0.3" valType="code" updates="None"/>\u000a        <Param name="font" val="Arial" valType="str" updates="constant"/>\u000a        <Param name="letterHeight" val="0.1" valType="code" updates="constant"/>\u000a      </TextComponent>\u000a      <KeyboardComponent name="requiredResponse">\u000a        <Param name="correctAns" val="$requiredResponse" valType="str" updates="constant"/>\u000a        <Param name="storeCorrect" val="True" valType="bool" updates="constant"/>\u000a        <Param name="name" val="requiredResponse" valType="code" updates="None"/>\u000a        <Param name="stopVal" val="" valType="code" updates="constant"/>\u000a        <Param name="durationEstim" val="" valType="code" updates="None"/>\u000a        <Param name="forceEndRoutine" val="True" valType="bool" updates="constant"/>\u000a        <Param name="startEstim" val="" valType="code" updates="None"/>\u000a        <Param name="discard previous" val="True" valType="bool" updates="constant"/>\u000a        <Param name="startType" val="time (s)" valType="str" updates="None"/>\u000a        <Param name="allowedKeys" val="requiredAllowed" valType="code" updates="set every repeat"/>\u000a        <Param name="stopType" val="duration (s)" valType="str" updates="None"/>\u000a        <Param name="startVal" val="0.3" valType="code" updates="None"/>\u000a        <Param name="store" val="first key" valType="str" updates="constant"/>\u000a      </KeyboardComponent>\u000a      <KeyboardComponent name="feedbackResponse">\u000a        <Param name="correctAns" val="$feedbackResponse" valType="str" updates="constant"/>\u000a        <Param name="storeCorrect" val="True" valType="bool" updates="constant"/>\u000a        <Param name="name" val="feedbackResponse" valType="code" updates="None"/>\u000a        <Param name="stopVal" val="" valType="code" updates="constant"/>\u000a        <Param name="durationEstim" val="" valType="code" updates="None"/>\u000a        <Param name="forceEndRoutine" val="False" valType="bool" updates="constant"/>\u000a        <Param name="startEstim" val="" valType="code" updates="None"/>\u000a        <Param name="discard previous" val="True" valType="bool" updates="constant"/>\u000a        <Param name="startType" val="time (s)" valType="str" updates="None"/>\u000a        <Param name="allowedKeys" val="feedbackAllowed" valType="code" updates="set every repeat"/>\u000a        <Param name="stopType" val="duration (s)" valType="str" updates="None"/>\u000a        <Param name="startVal" val="0.3" valType="code" updates="None"/>\u000a        <Param name="store" val="first key" valType="str" updates="constant"/>\u000a      </KeyboardComponent>\u000a      <CodeComponent name="code">\u000a        <Param name="Begin Experiment" val="msg1=&quot;&quot;&#10;&#10;order = int(expInfo['block order'])&#10;&#10;if order == 1:&#10;    taskFile = &quot;blockOrderA.xlsx&quot;&#10;elif order == 2:&#10;    taskFile = &quot;blockOrderB.xlsx&quot;&#10;else:&#10;    print &quot;****UNRECOGNISED ORDER CODE - please use 1 or 2 only****&quot;" valType="extendedCode" updates="constant"/>\u000a        <Param name="name" val="code" valType="code" updates="None"/>\u000a        <Param name="Each Frame" val="if len(feedbackResponse.keys)&lt;1:&#10;    msg1=&quot;&quot;&#10;else:&#10;    msg1=&quot;X&quot;" valType="extendedCode" updates="constant"/>\u000a        <Param name="Begin Routine" val="" valType="extendedCode" updates="constant"/>\u000a        <Param name="End Routine" val="" valType="extendedCode" updates="constant"/>\u000a        <Param name="End Experiment" val="" valType="extendedCode" updates="constant"/>\u000a      </CodeComponent>\u000a      <TextComponent name="accuracyFeedback">\u000a        <Param name="opacity" val="1" valType="code" updates="constant"/>\u000a        <Param name="colorSpace" val="rgb" valType="str" updates="constant"/>\u000a        <Param name="name" val="accuracyFeedback" valType="code" updates="None"/>\u000a        <Param name="color" val="red" valType="str" updates="constant"/>\u000a        <Param name="wrapWidth" val="" valType="code" updates="constant"/>\u000a        <Param name="stopVal" val="" valType="code" updates="constant"/>\u000a        <Param name="durationEstim" val="" valType="code" updates="None"/>\u000a        <Param name="pos" val="[0, -.5]" valType="code" updates="constant"/>\u000a        <Param name="flip" val="" valType="str" updates="constant"/>\u000a        <Param name="startEstim" val="" valType="code" updates="None"/>\u000a        <Param name="units" val="from exp settings" valType="str" updates="None"/>\u000a        <Param name="text" val="$msg1" valType="str" updates="set every frame"/>\u000a        <Param name="startType" val="time (s)" valType="str" updates="None"/>\u000a        <Param name="ori" val="0" valType="code" updates="constant"/>\u000a        <Param name="stopType" val="duration (s)" valType="str" updates="None"/>\u000a        <Param name="startVal" val="0.3" valType="code" updates="None"/>\u000a        <Param name="font" val="Arial" valType="str" updates="constant"/>\u000a        <Param name="letterHeight" val="0.2" valType="code" updates="constant"/>\u000a      </TextComponent>\u000a      <TextComponent name="target1box">\u000a        <Param name="opacity" val="1" valType="code" updates="constant"/>\u000a        <Param name="colorSpace" val="rgb" valType="str" updates="constant"/>\u000a        <Param name="name" val="target1box" valType="code" updates="None"/>\u000a        <Param name="color" val="white" valType="str" updates="constant"/>\u000a        <Param name="wrapWidth" val="" valType="code" updates="constant"/>\u000a        <Param name="stopVal" val="" valType="code" updates="constant"/>\u000a        <Param name="durationEstim" val="" valType="code" updates="None"/>\u000a        <Param name="pos" val="[-.6, .85]" valType="code" updates="constant"/>\u000a        <Param name="flip" val="" valType="str" updates="constant"/>\u000a        <Param name="startEstim" val="" valType="code" updates="None"/>\u000a        <Param name="units" val="from exp settings" valType="str" updates="None"/>\u000a        <Param name="text" val="$target1" valType="str" updates="set every repeat"/>\u000a        <Param name="startType" val="time (s)" valType="str" updates="None"/>\u000a        <Param name="ori" val="0" valType="code" updates="constant"/>\u000a        <Param name="stopType" val="duration (s)" valType="str" updates="None"/>\u000a        <Param name="startVal" val="0.0" valType="code" updates="None"/>\u000a        <Param name="font" val="Arial" valType="str" updates="constant"/>\u000a        <Param name="letterHeight" val="0.1" valType="code" updates="constant"/>\u000a      </TextComponent>\u000a      <TextComponent name="attribute1box">\u000a        <Param name="opacity" val="1" valType="code" updates="constant"/>\u000a        <Param name="colorSpace" val="rgb" valType="str" updates="constant"/>\u000a        <Param name="name" val="attribute1box" valType="code" updates="None"/>\u000a        <Param name="color" val="$[-1, 1, -1]" valType="str" updates="set every repeat"/>\u000a        <Param name="wrapWidth" val="" valType="code" updates="constant"/>\u000a        <Param name="stopVal" val="" valType="code" updates="constant"/>\u000a        <Param name="durationEstim" val="" valType="code" updates="None"/>\u000a        <Param name="pos" val="[-.6, 0.55]" valType="code" updates="constant"/>\u000a        <Param name="flip" val="" valType="str" updates="constant"/>\u000a        <Param name="startEstim" val="" valType="code" updates="None"/>\u000a        <Param name="units" val="from exp settings" valType="str" updates="None"/>\u000a        <Param name="text" val="$attribute1&#10;" valType="str" updates="set every repeat"/>\u000a        <Param name="startType" val="time (s)" valType="str" updates="None"/>\u000a        <Param name="ori" val="0" valType="code" updates="constant"/>\u000a        <Param name="stopType" val="duration (s)" valType="str" updates="None"/>\u000a        <Param name="startVal" val="0.0" valType="code" updates="None"/>\u000a        <Param name="font" val="Arial" valType="str" updates="constant"/>\u000a        <Param name="letterHeight" val="0.1" valType="code" updates="constant"/>\u000a      </TextComponent>\u000a      <TextComponent name="target2box">\u000a        <Param name="opacity" val="1" valType="code" updates="constant"/>\u000a        <Param name="colorSpace" val="rgb" valType="str" updates="constant"/>\u000a        <Param name="name" val="target2box" valType="code" updates="None"/>\u000a        <Param name="color" val="white" valType="str" updates="constant"/>\u000a        <Param name="wrapWidth" val="" valType="code" updates="constant"/>\u000a        <Param name="stopVal" val="" valType="code" updates="constant"/>\u000a        <Param name="durationEstim" val="" valType="code" updates="None"/>\u000a        <Param name="pos" val="[0.6, 0.85]" valType="code" updates="constant"/>\u000a        <Param name="flip" val="" valType="str" updates="constant"/>\u000a        <Param name="startEstim" val="" valType="code" updates="None"/>\u000a        <Param name="units" val="from exp settings" valType="str" updates="None"/>\u000a        <Param name="text" val="$target2" valType="str" updates="set every repeat"/>\u000a        <Param name="startType" val="time (s)" valType="str" updates="None"/>\u000a        <Param name="ori" val="0" valType="code" updates="constant"/>\u000a        <Param name="stopType" val="duration (s)" valType="str" updates="None"/>\u000a        <Param name="startVal" val="0.0" valType="code" updates="None"/>\u000a        <Param name="font" val="Arial" valType="str" updates="constant"/>\u000a        <Param name="letterHeight" val="0.1" valType="code" updates="constant"/>\u000a      </TextComponent>\u000a      <TextComponent name="attribute2box">\u000a        <Param name="opacity" val="1" valType="code" updates="constant"/>\u000a        <Param name="colorSpace" val="rgb" valType="str" updates="constant"/>\u000a        <Param name="name" val="attribute2box" valType="code" updates="None"/>\u000a        <Param name="color" val="$[-1, 1, -1]" valType="str" updates="constant"/>\u000a        <Param name="wrapWidth" val="" valType="code" updates="constant"/>\u000a        <Param name="stopVal" val="" valType="code" updates="constant"/>\u000a        <Param name="durationEstim" val="" valType="code" updates="None"/>\u000a        <Param name="pos" val="[0.6, 0.55]" valType="code" updates="constant"/>\u000a        <Param name="flip" val="" valType="str" updates="constant"/>\u000a        <Param name="startEstim" val="" valType="code" updates="None"/>\u000a        <Param name="units" val="from exp settings" valType="str" updates="None"/>\u000a        <Param name="text" val="$attribute2" valType="str" updates="set every repeat"/>\u000a        <Param name="startType" val="time (s)" valType="str" updates="None"/>\u000a        <Param name="ori" val="0" valType="code" updates="constant"/>\u000a        <Param name="stopType" val="duration (s)" valType="str" updates="None"/>\u000a        <Param name="startVal" val="0.0" valType="code" updates="None"/>\u000a        <Param name="font" val="Arial" valType="str" updates="constant"/>\u000a        <Param name="letterHeight" val="0.1" valType="code" updates="constant"/>\u000a      </TextComponent>\u000a      <TextComponent name="orLeftBox">\u000a        <Param name="opacity" val="1" valType="code" updates="constant"/>\u000a        <Param name="colorSpace" val="rgb" valType="str" updates="constant"/>\u000a        <Param name="name" val="orLeftBox" valType="code" updates="None"/>\u000a        <Param name="color" val="white" valType="str" updates="constant"/>\u000a        <Param name="wrapWidth" val="" valType="code" updates="constant"/>\u000a        <Param name="stopVal" val="" valType="code" updates="constant"/>\u000a        <Param name="durationEstim" val="" valType="code" updates="None"/>\u000a        <Param name="pos" val="[-.6, .7]" valType="code" updates="constant"/>\u000a        <Param name="flip" val="" valType="str" updates="constant"/>\u000a        <Param name="startEstim" val="" valType="code" updates="None"/>\u000a        <Param name="units" val="from exp settings" valType="str" updates="None"/>\u000a        <Param name="text" val="$orStimulus" valType="str" updates="set every repeat"/>\u000a        <Param name="startType" val="time (s)" valType="str" updates="None"/>\u000a        <Param name="ori" val="0" valType="code" updates="constant"/>\u000a        <Param name="stopType" val="duration (s)" valType="str" updates="None"/>\u000a        <Param name="startVal" val="0.0" valType="code" updates="None"/>\u000a        <Param name="font" val="Arial" valType="str" updates="constant"/>\u000a        <Param name="letterHeight" val="0.1" valType="code" updates="constant"/>\u000a      </TextComponent>\u000a      <TextComponent name="orRightBox">\u000a        <Param name="opacity" val="1" valType="code" updates="constant"/>\u000a        <Param name="colorSpace" val="rgb" valType="str" updates="constant"/>\u000a        <Param name="name" val="orRightBox" valType="code" updates="None"/>\u000a        <Param name="color" val="white" valType="str" updates="constant"/>\u000a        <Param name="wrapWidth" val="" valType="code" updates="constant"/>\u000a        <Param name="stopVal" val="" valType="code" updates="constant"/>\u000a        <Param name="durationEstim" val="" valType="code" updates="None"/>\u000a        <Param name="pos" val="[.6, .7]" valType="code" updates="constant"/>\u000a        <Param name="flip" val="" valType="str" updates="constant"/>\u000a        <Param name="startEstim" val="" valType="code" updates="None"/>\u000a        <Param name="units" val="from exp settings" valType="str" updates="None"/>\u000a        <Param name="text" val="$orStimulus" valType="str" updates="set every repeat"/>\u000a        <Param name="startType" val="time (s)" valType="str" updates="None"/>\u000a        <Param name="ori" val="0" valType="code" updates="constant"/>\u000a        <Param name="stopType" val="duration (s)" valType="str" updates="None"/>\u000a        <Param name="startVal" val="0.0" valType="code" updates="None"/>\u000a        <Param name="font" val="Arial" valType="str" updates="constant"/>\u000a        <Param name="letterHeight" val="0.1" valType="code" updates="constant"/>\u000a      </TextComponent>\u000a    </Routine>\u000a    <Routine name="instructions">\u000a      <TextComponent name="instructionsBox">\u000a        <Param name="opacity" val="1" valType="code" updates="constant"/>\u000a        <Param name="colorSpace" val="rgb" valType="str" updates="constant"/>\u000a        <Param name="name" val="instructionsBox" valType="code" updates="None"/>\u000a        <Param name="color" val="white" valType="str" updates="constant"/>\u000a        <Param name="wrapWidth" val="" valType="code" updates="constant"/>\u000a        <Param name="stopVal" val="" valType="code" updates="constant"/>\u000a        <Param name="durationEstim" val="" valType="code" updates="None"/>\u000a        <Param name="pos" val="[0, -.15]" valType="code" updates="constant"/>\u000a        <Param name="flip" val="" valType="str" updates="constant"/>\u000a        <Param name="startEstim" val="" valType="code" updates="None"/>\u000a        <Param name="units" val="from exp settings" valType="str" updates="None"/>\u000a        <Param name="text" val="$instruction" valType="str" updates="set every repeat"/>\u000a        <Param name="startType" val="time (s)" valType="str" updates="None"/>\u000a        <Param name="ori" val="0" valType="code" updates="constant"/>\u000a        <Param name="stopType" val="duration (s)" valType="str" updates="None"/>\u000a        <Param name="startVal" val="0.3" valType="code" updates="None"/>\u000a        <Param name="font" val="Arial" valType="str" updates="constant"/>\u000a        <Param name="letterHeight" val="0.05" valType="code" updates="constant"/>\u000a      </TextComponent>\u000a      <KeyboardComponent name="responseContinue">\u000a        <Param name="correctAns" val="$requiredResponse" valType="str" updates="constant"/>\u000a        <Param name="storeCorrect" val="False" valType="bool" updates="constant"/>\u000a        <Param name="name" val="responseContinue" valType="code" updates="None"/>\u000a        <Param name="stopVal" val="" valType="code" updates="constant"/>\u000a        <Param name="durationEstim" val="" valType="code" updates="None"/>\u000a        <Param name="forceEndRoutine" val="True" valType="bool" updates="constant"/>\u000a        <Param name="startEstim" val="" valType="code" updates="None"/>\u000a        <Param name="discard previous" val="False" valType="bool" updates="constant"/>\u000a        <Param name="startType" val="time (s)" valType="str" updates="None"/>\u000a        <Param name="allowedKeys" val="'space'" valType="code" updates="constant"/>\u000a        <Param name="stopType" val="duration (s)" valType="str" updates="None"/>\u000a        <Param name="startVal" val="0.3" valType="code" updates="None"/>\u000a        <Param name="store" val="nothing" valType="str" updates="constant"/>\u000a      </KeyboardComponent>\u000a      <TextComponent name="target1box_inst">\u000a        <Param name="opacity" val="1" valType="code" updates="constant"/>\u000a        <Param name="colorSpace" val="rgb" valType="str" updates="constant"/>\u000a        <Param name="name" val="target1box_inst" valType="code" updates="None"/>\u000a        <Param name="color" val="white" valType="str" updates="constant"/>\u000a        <Param name="wrapWidth" val="" valType="code" updates="constant"/>\u000a        <Param name="stopVal" val="" valType="code" updates="constant"/>\u000a        <Param name="durationEstim" val="" valType="code" updates="None"/>\u000a        <Param name="pos" val="[-.6, .85]" valType="code" updates="constant"/>\u000a        <Param name="flip" val="" valType="str" updates="constant"/>\u000a        <Param name="startEstim" val="" valType="code" updates="None"/>\u000a        <Param name="units" val="from exp settings" valType="str" updates="None"/>\u000a        <Param name="text" val="$target1" valType="str" updates="set every repeat"/>\u000a        <Param name="startType" val="time (s)" valType="str" updates="None"/>\u000a        <Param name="ori" val="0" valType="code" updates="constant"/>\u000a        <Param name="stopType" val="duration (s)" valType="str" updates="None"/>\u000a        <Param name="startVal" val="0.0" valType="code" updates="None"/>\u000a        <Param name="font" val="Arial" valType="str" updates="constant"/>\u000a        <Param name="letterHeight" val="0.1" valType="code" updates="constant"/>\u000a      </TextComponent>\u000a      <TextComponent name="target2box_inst">\u000a        <Param name="opacity" val="1" valType="code" updates="constant"/>\u000a        <Param name="colorSpace" val="rgb" valType="str" updates="constant"/>\u000a        <Param name="name" val="target2box_inst" valType="code" updates="None"/>\u000a        <Param name="color" val="white" valType="str" updates="constant"/>\u000a        <Param name="wrapWidth" val="" valType="code" updates="constant"/>\u000a        <Param name="stopVal" val="" valType="code" updates="constant"/>\u000a        <Param name="durationEstim" val="" valType="code" updates="None"/>\u000a        <Param name="pos" val="[0.6, 0.85]" valType="code" updates="constant"/>\u000a        <Param name="flip" val="" valType="str" updates="constant"/>\u000a        <Param name="startEstim" val="" valType="code" updates="None"/>\u000a        <Param name="units" val="from exp settings" valType="str" updates="None"/>\u000a        <Param name="text" val="$target2" valType="str" updates="set every repeat"/>\u000a        <Param name="startType" val="time (s)" valType="str" updates="None"/>\u000a        <Param name="ori" val="0" valType="code" updates="constant"/>\u000a        <Param name="stopType" val="duration (s)" valType="str" updates="None"/>\u000a        <Param name="startVal" val="0.0" valType="code" updates="None"/>\u000a        <Param name="font" val="Arial" valType="str" updates="constant"/>\u000a        <Param name="letterHeight" val="0.1" valType="code" updates="constant"/>\u000a      </TextComponent>\u000a      <TextComponent name="attribute1box_inst">\u000a        <Param name="opacity" val="1" valType="code" updates="constant"/>\u000a        <Param name="colorSpace" val="rgb" valType="str" updates="constant"/>\u000a        <Param name="name" val="attribute1box_inst" valType="code" updates="None"/>\u000a        <Param name="color" val="$[-1, 1, -1]" valType="str" updates="constant"/>\u000a        <Param name="wrapWidth" val="" valType="code" updates="constant"/>\u000a        <Param name="stopVal" val="" valType="code" updates="constant"/>\u000a        <Param name="durationEstim" val="" valType="code" updates="None"/>\u000a        <Param name="pos" val="[-.6, 0.55]" valType="code" updates="constant"/>\u000a        <Param name="flip" val="" valType="str" updates="constant"/>\u000a        <Param name="startEstim" val="" valType="code" updates="None"/>\u000a        <Param name="units" val="from exp settings" valType="str" updates="None"/>\u000a        <Param name="text" val="$attribute1" valType="str" updates="set every repeat"/>\u000a        <Param name="startType" val="time (s)" valType="str" updates="None"/>\u000a        <Param name="ori" val="0" valType="code" updates="constant"/>\u000a        <Param name="stopType" val="duration (s)" valType="str" updates="None"/>\u000a        <Param name="startVal" val="0.0" valType="code" updates="None"/>\u000a        <Param name="font" val="Arial" valType="str" updates="constant"/>\u000a        <Param name="letterHeight" val="0.1" valType="code" updates="constant"/>\u000a      </TextComponent>\u000a      <TextComponent name="attribute2box_inst">\u000a        <Param name="opacity" val="1" valType="code" updates="constant"/>\u000a        <Param name="colorSpace" val="rgb" valType="str" updates="constant"/>\u000a        <Param name="name" val="attribute2box_inst" valType="code" updates="None"/>\u000a        <Param name="color" val="$[-1, 1, -1]" valType="str" updates="constant"/>\u000a        <Param name="wrapWidth" val="" valType="code" updates="constant"/>\u000a        <Param name="stopVal" val="" valType="code" updates="constant"/>\u000a        <Param name="durationEstim" val="" valType="code" updates="None"/>\u000a        <Param name="pos" val="[0.6, 0.55]" valType="code" updates="constant"/>\u000a        <Param name="flip" val="" valType="str" updates="constant"/>\u000a        <Param name="startEstim" val="" valType="code" updates="None"/>\u000a        <Param name="units" val="from exp settings" valType="str" updates="None"/>\u000a        <Param name="text" val="$attribute2" valType="str" updates="set every repeat"/>\u000a        <Param name="startType" val="time (s)" valType="str" updates="None"/>\u000a        <Param name="ori" val="0" valType="code" updates="constant"/>\u000a        <Param name="stopType" val="duration (s)" valType="str" updates="None"/>\u000a        <Param name="startVal" val="0.0" valType="code" updates="None"/>\u000a        <Param name="font" val="Arial" valType="str" updates="constant"/>\u000a        <Param name="letterHeight" val="0.1" valType="code" updates="constant"/>\u000a      </TextComponent>\u000a      <TextComponent name="orLeftBox_inst">\u000a        <Param name="opacity" val="1" valType="code" updates="constant"/>\u000a        <Param name="colorSpace" val="rgb" valType="str" updates="constant"/>\u000a        <Param name="name" val="orLeftBox_inst" valType="code" updates="None"/>\u000a        <Param name="color" val="white" valType="str" updates="constant"/>\u000a        <Param name="wrapWidth" val="" valType="code" updates="constant"/>\u000a        <Param name="stopVal" val="" valType="code" updates="constant"/>\u000a        <Param name="durationEstim" val="" valType="code" updates="None"/>\u000a        <Param name="pos" val="[-.6, .7]" valType="code" updates="constant"/>\u000a        <Param name="flip" val="" valType="str" updates="constant"/>\u000a        <Param name="startEstim" val="" valType="code" updates="None"/>\u000a        <Param name="units" val="from exp settings" valType="str" updates="None"/>\u000a        <Param name="text" val="$orStimulus" valType="str" updates="set every repeat"/>\u000a        <Param name="startType" val="time (s)" valType="str" updates="None"/>\u000a        <Param name="ori" val="0" valType="code" updates="constant"/>\u000a        <Param name="stopType" val="duration (s)" valType="str" updates="None"/>\u000a        <Param name="startVal" val="0.0" valType="code" updates="None"/>\u000a        <Param name="font" val="Arial" valType="str" updates="constant"/>\u000a        <Param name="letterHeight" val="0.1" valType="code" updates="constant"/>\u000a      </TextComponent>\u000a      <TextComponent name="orRightBox_inst">\u000a        <Param name="opacity" val="1" valType="code" updates="constant"/>\u000a        <Param name="colorSpace" val="rgb" valType="str" updates="constant"/>\u000a        <Param name="name" val="orRightBox_inst" valType="code" updates="None"/>\u000a        <Param name="color" val="white" valType="str" updates="constant"/>\u000a        <Param name="wrapWidth" val="" valType="code" updates="constant"/>\u000a        <Param name="stopVal" val="" valType="code" updates="constant"/>\u000a        <Param name="durationEstim" val="" valType="code" updates="None"/>\u000a        <Param name="pos" val="[.6, .7]" valType="code" updates="constant"/>\u000a        <Param name="flip" val="" valType="str" updates="constant"/>\u000a        <Param name="startEstim" val="" valType="code" updates="None"/>\u000a        <Param name="units" val="from exp settings" valType="str" updates="None"/>\u000a        <Param name="text" val="$orStimulus" valType="str" updates="set every repeat"/>\u000a        <Param name="startType" val="time (s)" valType="str" updates="None"/>\u000a        <Param name="ori" val="0" valType="code" updates="constant"/>\u000a        <Param name="stopType" val="duration (s)" valType="str" updates="None"/>\u000a        <Param name="startVal" val="0.0" valType="code" updates="None"/>\u000a        <Param name="font" val="Arial" valType="str" updates="constant"/>\u000a        <Param name="letterHeight" val="0.1" valType="code" updates="constant"/>\u000a      </TextComponent>\u000a    </Routine>\u000a  </Routines>\u000a  <Flow>\u000a    <LoopInitiator loopType="TrialHandler" name="blocks">\u000a      <Param name="conditionsFile" val="$taskFile" valType="str" updates="None"/>\u000a      <Param name="name" val="blocks" valType="code" updates="None"/>\u000a      <Param name="isTrials" val="False" valType="bool" updates="None"/>\u000a      <Param name="random seed" val="" valType="code" updates="None"/>\u000a      <Param name="loopType" val="sequential" valType="str" updates="None"/>\u000a      <Param name="nReps" val="1" valType="code" updates="None"/>\u000a      <Param name="endPoints" val="[0, 1]" valType="num" updates="None"/>\u000a      <Param name="conditions" val="None" valType="str" updates="None"/>\u000a      <Param name="Selected rows" val="" valType="str" updates="None"/>\u000a    </LoopInitiator>\u000a    <Routine name="instructions"/>\u000a    <LoopInitiator loopType="TrialHandler" name="trials">\u000a      <Param name="conditionsFile" val="$block" valType="str" updates="None"/>\u000a      <Param name="name" val="trials" valType="code" updates="None"/>\u000a      <Param name="isTrials" val="True" valType="bool" updates="None"/>\u000a      <Param name="random seed" val="" valType="code" updates="None"/>\u000a      <Param name="loopType" val="random" valType="str" updates="None"/>\u000a      <Param name="nReps" val="$nBlockRepeats" valType="code" updates="None"/>\u000a      <Param name="endPoints" val="[0, 1]" valType="num" updates="None"/>\u000a      <Param name="conditions" val="None" valType="str" updates="None"/>\u000a      <Param name="Selected rows" val="" valType="str" updates="None"/>\u000a    </LoopInitiator>\u000a    <Routine name="trial"/>\u000a    <LoopTerminator name="trials"/>\u000a    <LoopTerminator name="blocks"/>\u000a  </Flow>\u000a</PsychoPy2experiment>\u000a
p857
sg44
(lp858
sg64
I206318320
sg11
g83
sg6
g7
sg66
I2
sg21
I01
sg22
g23
sg67
g1
(g68
g46
(dp859
g16
g71
(g72
g73
g74
S'b'
tRp860
(I1
(I10
I2
tg76
I00
S'\x00\x00\x00\x00\x00\x00\x00\x00\x00\x00\x00\x00\x00\x00\x00\x00\x00\x00\x00\x00\x00\x00\x00\x00\x00\x00\x00\x00\x00\x00\x00\x00\x00\x00\x00\x00\x00\x00\x00\x00\x00\x00\x00\x00\x00\x00\x00\x00\x00\x00\x00\x00\x00\x00\x00\x00\x00\x00\x00\x00\x00\x00\x00\x00\x00\x00\x00\x00\x00\x00\x00\x00\x00\x00\x00\x00\x00\x00\x00\x00'
S'\x00\x00\x00\x00\x00\x00\x00\x00\x00\x00\x00\x00\x00\x00\x00\x00\x00\x00\x00\x00'
Ntbsg18
g91
(g73
(I0
tS'b'
tRp861
(I1
(I10
I2
tg146
I00
(lp862
S'i'
aS'i'
aS'i'
aS'i'
aS'i'
aS'i'
aS'i'
aS'i'
aS'i'
aS'i'
aS'e'
aS'e'
aS'e'
aS'e'
aS'e'
aS'e'
aS'e'
aS'e'
aS'e'
aS'e'
atbsg70
g71
(g72
g73
g74
S'b'
tRp863
(I1
(I10
I2
tg76
I00
S'\x00\x00\x80?\x00\x00\x80?\x00\x00\x80?\x00\x00\x80?\x00\x00\x80?\x00\x00\x80?\x00\x00\x80?\x00\x00\x80?\x00\x00\x80?\x00\x00\x80?\x00\x00\x80?\x00\x00\x80?\x00\x00\x80?\x00\x00\x80?\x00\x00\x80?\x00\x00\x80?\x00\x00\x80?\x00\x00\x80?\x00\x00\x80?\x00\x00\x80?'
S'\x00\x00\x00\x00\x00\x00\x00\x00\x00\x00\x00\x00\x00\x00\x00\x00\x00\x00\x00\x00'
Ntbsg20
g71
(g72
g73
g74
S'b'
tRp864
(I1
(I10
I2
tg76
I00
S"\xc0\xd4O=\xc0\xe8U=\x80qT=@\x95K=\x00\x99V=\xc0@O=\x80\x00L=\x80/T=@\xbcQ=\x80\xbfQ=\x00\x92K=\xc0\x86K=\x00\x86P=\xc0'O=\x00\nR=@pT=\x00\xe3K=@\xcfQ=\xe00\x8a=@iS="
S'\x00\x00\x00\x00\x00\x00\x00\x00\x00\x00\x00\x00\x00\x00\x00\x00\x00\x00\x00\x00'
Ntbsg17
g71
(g72
g73
g74
S'b'
tRp865
(I1
(I10
I2
tg76
I00
S'\x00\xb5Q=\x80\xe1V=\x805V=\x00\x16N=@QX=\x00pQ=\x80\x1eN=\x806U=\x00\xd1S=\xc0\xb4S=\xc0\xa3M=\x00\xa8M=\x80\x96Q=@cQ=\x80\xefS=\x80"V=\xc0\rN=\x80\x04S=\xe0w\x8c=\x00QU='
S'\x00\x00\x00\x00\x00\x00\x00\x00\x00\x00\x00\x00\x00\x00\x00\x00\x00\x00\x00\x00'
Ntbsg19
g71
(g72
g73
g74
S'b'
tRp866
(I1
(I10
I2
tg76
I00
S'\x00\x00\x00\x00\x00\x00\x00\x00\x00\x00\x00\x00\x00\x00\x00\x00\x00\x00\x00\x00\x00\x00\x00\x00\x00\x00\x00\x00\x00\x00\x00\x00\x00\x00\x00\x00\x00\x00\x00\x00\x00\x00\x00\x00\x00\x00\x00\x00\x00\x00\x00\x00\x00\x00\x00\x00\x00\x00\x00\x00\x00\x00\x00\x00\x00\x00\x00\x00\x00\x00\x00\x00\x00\x00\x00\x00\x00\x00\x00\x00'
S'\x00\x00\x00\x00\x00\x00\x00\x00\x00\x00\x00\x00\x00\x00\x00\x00\x00\x00\x00\x00'
Ntbsg77
g71
(g72
g73
g74
S'b'
tRp867
(I1
(I10
I2
tg76
I00
S'\x00\x00\xa0@\x00\x00@A\x00\x00\x80?\x00\x00pA\x00\x00\x00@\x00\x00 A\x00\x00\x80@\x00\x00\x80A\x00\x00@@\x00\x000A\x00\x00\xc0@\x00\x00`A\x00\x00\x00A\x00\x00\x88A\x00\x00\x10A\x00\x00PA\x00\x00\xe0@\x00\x00\x90A\x00\x00\x00\x00\x00\x00\x98A'
S'\x00\x00\x00\x00\x00\x00\x00\x00\x00\x00\x00\x00\x00\x00\x00\x00\x00\x00\x00\x00'
Ntbsg15
g91
(g73
(I0
tS'b'
tRp868
(I1
(I10
I2
tg146
I00
(lp869
S'e'
aS'e'
aS'e'
aS'e'
aS'e'
aS'e'
aS'e'
aS'e'
aS'e'
aS'e'
aS'i'
aS'i'
aS'i'
aS'i'
aS'i'
aS'i'
aS'i'
aS'i'
aS'i'
aS'i'
atbstRp870
(dp871
g81
(dp872
g16
I01
sg70
I01
sg20
I01
sg18
I00
sg17
I01
sg19
I01
sg77
I01
sg15
I00
ssg83
g855
sg84
(lp873
g70
ag77
ag15
ag16
ag17
ag18
ag19
ag20
asg86
(lp874
I10
aI2
asbsg88
g184
sg90
g91
(g73
(I0
tS'b'
tRp875
(I1
(I10
I2
tg93
I01
S'\t\x00\x00\x00\x01\x00\x00\x00\x02\x00\x00\x00\x04\x00\x00\x00\x03\x00\x00\x00\x00\x00\x00\x00\x05\x00\x00\x00\x08\x00\x00\x00\x06\x00\x00\x00\x07\x00\x00\x00\x02\x00\x00\x00\x04\x00\x00\x00\x00\x00\x00\x00\x07\x00\x00\x00\x05\x00\x00\x00\x01\x00\x00\x00\x03\x00\x00\x00\x06\x00\x00\x00\x08\x00\x00\x00\t\x00\x00\x00'
tbsg94
I01
sg95
I2
sg96
I-1
sg97
(lp876
g1
(g45
g46
(dp877
g515
g578
sg520
V 
sg511
Vi
sg503
Vi
sg507
I1
sg512
Ve
sg508
Ve
sg504
g572
stRp878
ag1
(g45
g46
(dp879
g515
g530
sg520
V 
sg511
Vi
sg503
Vi
sg507
I1
sg512
Ve
sg508
Ve
sg504
g524
stRp880
ag1
(g45
g46
(dp881
g515
g542
sg520
V 
sg511
Vi
sg503
Vi
sg507
I1
sg512
Ve
sg508
Ve
sg504
g536
stRp882
ag1
(g45
g46
(dp883
g515
g566
sg520
V 
sg511
Vi
sg503
Vi
sg507
I1
sg512
Ve
sg508
Ve
sg504
g560
stRp884
ag1
(g45
g46
(dp885
g515
g554
sg520
V 
sg511
Vi
sg503
Vi
sg507
I1
sg512
Ve
sg508
Ve
sg504
g548
stRp886
ag1
(g45
g46
(dp887
g515
g590
sg520
V 
sg511
Ve
sg503
Ve
sg507
I2
sg512
Vi
sg508
Vi
sg504
g584
stRp888
ag1
(g45
g46
(dp889
g515
g614
sg520
V 
sg511
Ve
sg503
Ve
sg507
I2
sg512
Vi
sg508
Vi
sg504
g608
stRp890
ag1
(g45
g46
(dp891
g515
g626
sg520
V 
sg511
Ve
sg503
Ve
sg507
I2
sg512
Vi
sg508
Vi
sg504
g620
stRp892
ag1
(g45
g46
(dp893
g515
g602
sg520
V 
sg511
Ve
sg503
Ve
sg507
I2
sg512
Vi
sg508
Vi
sg504
g596
stRp894
ag1
(g45
g46
(dp895
g515
g516
sg520
V 
sg511
Ve
sg503
Ve
sg507
I2
sg512
Vi
sg508
Vi
sg504
g505
stRp896
asg120
Nsg121
g726
sg123
I20
sg124
I0
sg125
I20
sg126
I01
sbag127
asS'savePickle'
p897
I00
sb.